
a5.elf:     file format elf32-msp430


Disassembly of section .text:

0000c000 <__watchdog_support>:
    c000:	55 42 20 01 	mov.b	&0x0120,r5	
    c004:	35 d0 08 5a 	bis	#23048,	r5	;#0x5a08
    c008:	82 45 0a 02 	mov	r5,	&0x020a	

0000c00c <__init_stack>:
    c00c:	31 40 00 04 	mov	#1024,	r1	;#0x0400

0000c010 <__do_copy_data>:
    c010:	3f 40 02 00 	mov	#2,	r15	;#0x0002
    c014:	0f 93       	tst	r15		
    c016:	08 24       	jz	$+18     	;abs 0xc028
    c018:	92 42 0a 02 	mov	&0x020a,&0x0120	
    c01c:	20 01 
    c01e:	2f 83       	decd	r15		
    c020:	9f 4f 6c cd 	mov	-12948(r15),512(r15);0xcd6c(r15), 0x0200(r15)
    c024:	00 02 
    c026:	f8 23       	jnz	$-14     	;abs 0xc018

0000c028 <__do_clear_bss>:
    c028:	3f 40 08 00 	mov	#8,	r15	;#0x0008
    c02c:	0f 93       	tst	r15		
    c02e:	07 24       	jz	$+16     	;abs 0xc03e
    c030:	92 42 0a 02 	mov	&0x020a,&0x0120	
    c034:	20 01 
    c036:	1f 83       	dec	r15		
    c038:	cf 43 02 02 	mov.b	#0,	514(r15);r3 As==00, 0x0202(r15)
    c03c:	f9 23       	jnz	$-12     	;abs 0xc030

0000c03e <main>:
    c03e:	b2 40 80 5a 	mov	#23168,	&0x0120	;#0x5a80
    c042:	20 01 
    c044:	5f 42 ff 10 	mov.b	&0x10ff,r15	
    c048:	c2 4f 57 00 	mov.b	r15,	&0x0057	
    c04c:	5f 42 fe 10 	mov.b	&0x10fe,r15	
    c050:	c2 4f 56 00 	mov.b	r15,	&0x0056	
    c054:	3f 40 80 25 	mov	#9600,	r15	;#0x2580
    c058:	b0 12 1a c8 	call	#0xc81a	
    c05c:	5f 42 26 00 	mov.b	&0x0026,r15	
    c060:	7f f0 fd ff 	and.b	#-3,	r15	;#0xfffd
    c064:	c2 4f 26 00 	mov.b	r15,	&0x0026	
    c068:	5f 42 41 00 	mov.b	&0x0041,r15	
    c06c:	7f f0 fd ff 	and.b	#-3,	r15	;#0xfffd
    c070:	c2 4f 41 00 	mov.b	r15,	&0x0041	
    c074:	f2 40 40 00 	mov.b	#64,	&0x0022	;#0x0040
    c078:	22 00 
    c07a:	5f 42 26 00 	mov.b	&0x0026,r15	
    c07e:	7f d0 40 00 	bis.b	#64,	r15	;#0x0040
    c082:	c2 4f 26 00 	mov.b	r15,	&0x0026	
    c086:	5f 42 2a 00 	mov.b	&0x002a,r15	
    c08a:	7f d0 12 00 	bis.b	#18,	r15	;#0x0012
    c08e:	c2 4f 2a 00 	mov.b	r15,	&0x002a	
    c092:	5f 42 2e 00 	mov.b	&0x002e,r15	
    c096:	7f d0 12 00 	bis.b	#18,	r15	;#0x0012
    c09a:	c2 4f 2e 00 	mov.b	r15,	&0x002e	
    c09e:	5f 42 2e 00 	mov.b	&0x002e,r15	
    c0a2:	7f f0 3f 00 	and.b	#63,	r15	;#0x003f
    c0a6:	c2 4f 2e 00 	mov.b	r15,	&0x002e	
    c0aa:	5f 42 42 00 	mov.b	&0x0042,r15	
    c0ae:	7f f0 3f 00 	and.b	#63,	r15	;#0x003f
    c0b2:	c2 4f 42 00 	mov.b	r15,	&0x0042	
    c0b6:	f2 42 25 00 	mov.b	#8,	&0x0025	;r2 As==11
    c0ba:	f2 42 24 00 	mov.b	#8,	&0x0024	;r2 As==11
    c0be:	b2 40 ff 03 	mov	#1023,	&0x0172	;#0x03ff
    c0c2:	72 01 
    c0c4:	b2 40 10 00 	mov	#16,	&0x0162	;#0x0010
    c0c8:	62 01 
    c0ca:	b2 40 e0 00 	mov	#224,	&0x0164	;#0x00e0
    c0ce:	64 01 
    c0d0:	b2 40 10 02 	mov	#528,	&0x0160	;#0x0210
    c0d4:	60 01 
    c0d6:	b2 40 ff 03 	mov	#1023,	&0x0192	;#0x03ff
    c0da:	92 01 
    c0dc:	b2 40 10 00 	mov	#16,	&0x0182	;#0x0010
    c0e0:	82 01 
    c0e2:	b2 40 10 02 	mov	#528,	&0x0180	;#0x0210
    c0e6:	80 01 
    c0e8:	b2 40 e0 00 	mov	#224,	&0x0184	;#0x00e0
    c0ec:	84 01 
    c0ee:	b2 40 e0 00 	mov	#224,	&0x0186	;#0x00e0
    c0f2:	86 01 
    c0f4:	b2 40 10 02 	mov	#528,	&0x0180	;#0x0210
    c0f8:	80 01 
    c0fa:	5f 42 22 00 	mov.b	&0x0022,r15	
    c0fe:	7f d0 a3 ff 	bis.b	#-93,	r15	;#0xffa3
    c102:	c2 4f 22 00 	mov.b	r15,	&0x0022	
    c106:	f2 40 a2 ff 	mov.b	#-94,	&0x0021	;#0xffa2
    c10a:	21 00 
    c10c:	f2 43 2a 00 	mov.b	#-1,	&0x002a	;r3 As==11
    c110:	f2 40 bf ff 	mov.b	#-65,	&0x0029	;#0xffbf
    c114:	29 00 
    c116:	5f 42 21 00 	mov.b	&0x0021,r15	
    c11a:	7f d0 fe ff 	bis.b	#-2,	r15	;#0xfffe
    c11e:	c2 4f 21 00 	mov.b	r15,	&0x0021	
    c122:	3e 40 74 01 	mov	#372,	r14	;#0x0174
    c126:	3f 40 00 40 	mov	#16384,	r15	;#0x4000
    c12a:	b0 12 dc c3 	call	#0xc3dc	
    c12e:	32 d0 58 00 	bis	#88,	r2	;#0x0058
    c132:	0f 43       	clr	r15		

0000c134 <__stop_progExec__>:
    c134:	32 d0 f0 00 	bis	#240,	r2	;#0x00f0
    c138:	fd 3f       	jmp	$-4      	;abs 0xc134

0000c13a <__ctors_end>:
    c13a:	30 40 ae c8 	br	#0xc8ae	

0000c13e <timer0>:
    c13e:	0f 12       	push	r15		
    c140:	0e 12       	push	r14		
    c142:	0d 12       	push	r13		
    c144:	0c 12       	push	r12		
    c146:	5f 42 21 00 	mov.b	&0x0021,r15	
    c14a:	7f f0 5d 00 	and.b	#93,	r15	;#0x005d
    c14e:	c2 4f 21 00 	mov.b	r15,	&0x0021	
    c152:	1f 42 00 02 	mov	&0x0200,r15	
    c156:	2f 4f       	mov	@r15,	r15	
    c158:	12 c3       	clrc			
    c15a:	0f 10       	rrc	r15		
    c15c:	12 c3       	clrc			
    c15e:	0f 10       	rrc	r15		
    c160:	4f 4f       	mov.b	r15,	r15	
    c162:	c2 4f 06 02 	mov.b	r15,	&0x0206	
    c166:	5f 42 04 02 	mov.b	&0x0204,r15	
    c16a:	4f 93       	tst.b	r15		
    c16c:	1b 20       	jnz	$+56     	;abs 0xc1a4
    c16e:	5f 42 06 02 	mov.b	&0x0206,r15	
    c172:	7f f0 0f 00 	and.b	#15,	r15	;#0x000f
    c176:	c2 4f 06 02 	mov.b	r15,	&0x0206	
    c17a:	5f 42 06 02 	mov.b	&0x0206,r15	
    c17e:	4f 4f       	mov.b	r15,	r15	
    c180:	5f 4f 0f cd 	mov.b	-13041(r15),r15	;0xcd0f(r15)
    c184:	c2 4f 29 00 	mov.b	r15,	&0x0029	
    c188:	5f 42 06 02 	mov.b	&0x0206,r15	
    c18c:	4f 4f       	mov.b	r15,	r15	
    c18e:	5f 4f 1f cd 	mov.b	-13025(r15),r15	;0xcd1f(r15)
    c192:	c2 4f 21 00 	mov.b	r15,	&0x0021	
    c196:	5f 42 21 00 	mov.b	&0x0021,r15	
    c19a:	7f d0 80 ff 	bis.b	#-128,	r15	;#0xff80
    c19e:	c2 4f 21 00 	mov.b	r15,	&0x0021	
    c1a2:	38 3c       	jmp	$+114    	;abs 0xc214
    c1a4:	5f 42 04 02 	mov.b	&0x0204,r15	
    c1a8:	5f 93       	cmp.b	#1,	r15	;r3 As==01
    c1aa:	23 20       	jnz	$+72     	;abs 0xc1f2
    c1ac:	5f 42 06 02 	mov.b	&0x0206,r15	
    c1b0:	4f 4f       	mov.b	r15,	r15	
    c1b2:	4f 4f       	mov.b	r15,	r15	
    c1b4:	12 c3       	clrc			
    c1b6:	4f 10       	rrc.b	r15		
    c1b8:	12 c3       	clrc			
    c1ba:	4f 10       	rrc.b	r15		
    c1bc:	12 c3       	clrc			
    c1be:	4f 10       	rrc.b	r15		
    c1c0:	12 c3       	clrc			
    c1c2:	4f 10       	rrc.b	r15		
    c1c4:	c2 4f 06 02 	mov.b	r15,	&0x0206	
    c1c8:	5f 42 06 02 	mov.b	&0x0206,r15	
    c1cc:	4f 4f       	mov.b	r15,	r15	
    c1ce:	5f 4f 0f cd 	mov.b	-13041(r15),r15	;0xcd0f(r15)
    c1d2:	c2 4f 29 00 	mov.b	r15,	&0x0029	
    c1d6:	5f 42 06 02 	mov.b	&0x0206,r15	
    c1da:	4f 4f       	mov.b	r15,	r15	
    c1dc:	5f 4f 1f cd 	mov.b	-13025(r15),r15	;0xcd1f(r15)
    c1e0:	c2 4f 21 00 	mov.b	r15,	&0x0021	
    c1e4:	5f 42 21 00 	mov.b	&0x0021,r15	
    c1e8:	7f d0 20 00 	bis.b	#32,	r15	;#0x0020
    c1ec:	c2 4f 21 00 	mov.b	r15,	&0x0021	
    c1f0:	11 3c       	jmp	$+36     	;abs 0xc214
    c1f2:	1f 42 02 02 	mov	&0x0202,r15	
    c1f6:	5f 4f 0c cd 	mov.b	-13044(r15),r15	;0xcd0c(r15)
    c1fa:	c2 4f 29 00 	mov.b	r15,	&0x0029	
    c1fe:	5f 42 21 00 	mov.b	&0x0021,r15	
    c202:	6f d3       	bis.b	#2,	r15	;r3 As==10
    c204:	c2 4f 21 00 	mov.b	r15,	&0x0021	
    c208:	5f 42 21 00 	mov.b	&0x0021,r15	
    c20c:	7f f0 fe ff 	and.b	#-2,	r15	;#0xfffe
    c210:	c2 4f 21 00 	mov.b	r15,	&0x0021	
    c214:	5f 42 04 02 	mov.b	&0x0204,r15	
    c218:	5f 53       	inc.b	r15		
    c21a:	c2 4f 04 02 	mov.b	r15,	&0x0204	
    c21e:	5c 42 04 02 	mov.b	&0x0204,r12	
    c222:	4d 4c       	mov.b	r12,	r13	
    c224:	8d 11       	sxt	r13		
    c226:	0e 4d       	mov	r13,	r14	
    c228:	0f 4e       	mov	r14,	r15	
    c22a:	0f 5f       	rla	r15		
    c22c:	0f 5f       	rla	r15		
    c22e:	0e 4f       	mov	r15,	r14	
    c230:	0e 5d       	add	r13,	r14	
    c232:	0f 4e       	mov	r14,	r15	
    c234:	0f 5f       	rla	r15		
    c236:	0f 5f       	rla	r15		
    c238:	0f 5f       	rla	r15		
    c23a:	0f 5f       	rla	r15		
    c23c:	0e 5f       	add	r15,	r14	
    c23e:	0f 4e       	mov	r14,	r15	
    c240:	0f 5d       	add	r13,	r15	
    c242:	0e 4f       	mov	r15,	r14	
    c244:	8e 10       	swpb	r14		
    c246:	4e 4e       	mov.b	r14,	r14	
    c248:	4f 4c       	mov.b	r12,	r15	
    c24a:	8f 11       	sxt	r15		
    c24c:	8f 10       	swpb	r15		
    c24e:	4f 4f       	mov.b	r15,	r15	
    c250:	4e 8f       	sub.b	r15,	r14	
    c252:	4f 4e       	mov.b	r14,	r15	
    c254:	4f 4f       	mov.b	r15,	r15	
    c256:	4f 4f       	mov.b	r15,	r15	
    c258:	4f 5f       	rla.b	r15		
    c25a:	4f 5e       	add.b	r14,	r15	
    c25c:	4e 4c       	mov.b	r12,	r14	
    c25e:	4e 8f       	sub.b	r15,	r14	
    c260:	c2 4e 04 02 	mov.b	r14,	&0x0204	
    c264:	3c 41       	pop	r12		
    c266:	3d 41       	pop	r13		
    c268:	3e 41       	pop	r14		
    c26a:	3f 41       	pop	r15		
    c26c:	00 13       	reti			

0000c26e <timer1>:
    c26e:	0f 12       	push	r15		
    c270:	0e 12       	push	r14		
    c272:	0d 12       	push	r13		
    c274:	0c 12       	push	r12		
    c276:	31 50 fa ff 	add	#-6,	r1	;#0xfffa
    c27a:	1f 42 08 02 	mov	&0x0208,r15	
    c27e:	1f 53       	inc	r15		
    c280:	82 4f 08 02 	mov	r15,	&0x0208	
    c284:	1f 42 08 02 	mov	&0x0208,r15	
    c288:	3f 90 e9 03 	cmp	#1001,	r15	;#0x03e9
    c28c:	54 38       	jl	$+170    	;abs 0xc336
    c28e:	1f 42 74 01 	mov	&0x0174,r15	
    c292:	12 c3       	clrc			
    c294:	0f 10       	rrc	r15		
    c296:	12 c3       	clrc			
    c298:	0f 10       	rrc	r15		
    c29a:	12 c3       	clrc			
    c29c:	0f 10       	rrc	r15		
    c29e:	12 c3       	clrc			
    c2a0:	0f 10       	rrc	r15		
    c2a2:	12 c3       	clrc			
    c2a4:	0f 10       	rrc	r15		
    c2a6:	12 c3       	clrc			
    c2a8:	0f 10       	rrc	r15		
    c2aa:	12 c3       	clrc			
    c2ac:	0f 10       	rrc	r15		
    c2ae:	c1 4f 00 00 	mov.b	r15,	0(r1)	;0x0000(r1)
    c2b2:	1f 42 94 01 	mov	&0x0194,r15	
    c2b6:	12 c3       	clrc			
    c2b8:	0f 10       	rrc	r15		
    c2ba:	12 c3       	clrc			
    c2bc:	0f 10       	rrc	r15		
    c2be:	12 c3       	clrc			
    c2c0:	0f 10       	rrc	r15		
    c2c2:	12 c3       	clrc			
    c2c4:	0f 10       	rrc	r15		
    c2c6:	12 c3       	clrc			
    c2c8:	0f 10       	rrc	r15		
    c2ca:	12 c3       	clrc			
    c2cc:	0f 10       	rrc	r15		
    c2ce:	12 c3       	clrc			
    c2d0:	0f 10       	rrc	r15		
    c2d2:	c1 4f 01 00 	mov.b	r15,	1(r1)	;0x0001(r1)
    c2d6:	1f 42 96 01 	mov	&0x0196,r15	
    c2da:	12 c3       	clrc			
    c2dc:	0f 10       	rrc	r15		
    c2de:	12 c3       	clrc			
    c2e0:	0f 10       	rrc	r15		
    c2e2:	12 c3       	clrc			
    c2e4:	0f 10       	rrc	r15		
    c2e6:	12 c3       	clrc			
    c2e8:	0f 10       	rrc	r15		
    c2ea:	12 c3       	clrc			
    c2ec:	0f 10       	rrc	r15		
    c2ee:	12 c3       	clrc			
    c2f0:	0f 10       	rrc	r15		
    c2f2:	12 c3       	clrc			
    c2f4:	0f 10       	rrc	r15		
    c2f6:	c1 4f 02 00 	mov.b	r15,	2(r1)	;0x0002(r1)
    c2fa:	6e 41       	mov.b	@r1,	r14	
    c2fc:	5f 41 02 00 	mov.b	2(r1),	r15	;0x0002(r1)
    c300:	0f 5f       	rla	r15		
    c302:	0f 5f       	rla	r15		
    c304:	0f 5f       	rla	r15		
    c306:	5d 41 01 00 	mov.b	1(r1),	r13	;0x0001(r1)
    c30a:	0f 5d       	add	r13,	r15	
    c30c:	0f 5f       	rla	r15		
    c30e:	0f 5f       	rla	r15		
    c310:	0f 5f       	rla	r15		
    c312:	0d 4e       	mov	r14,	r13	
    c314:	0d 5f       	add	r15,	r13	
    c316:	81 4d 04 00 	mov	r13,	4(r1)	;0x0004(r1)
    c31a:	1f 41 04 00 	mov	4(r1),	r15	;0x0004(r1)
    c31e:	0f 5f       	rla	r15		
    c320:	3f 50 0c c9 	add	#-14068,r15	;#0xc90c
    c324:	2f 4f       	mov	@r15,	r15	
    c326:	0f 12       	push	r15		
    c328:	30 12 2f cd 	push	#-13009	;#0xcd2f
    c32c:	b0 12 ba c5 	call	#0xc5ba	
    c330:	21 52       	add	#4,	r1	;r2 As==10
    c332:	82 43 08 02 	mov	#0,	&0x0208	;r3 As==00
    c336:	31 50 06 00 	add	#6,	r1	;#0x0006
    c33a:	3c 41       	pop	r12		
    c33c:	3d 41       	pop	r13		
    c33e:	3e 41       	pop	r14		
    c340:	3f 41       	pop	r15		
    c342:	00 13       	reti			

0000c344 <button>:
    c344:	0f 12       	push	r15		
    c346:	0e 12       	push	r14		
    c348:	0d 12       	push	r13		
    c34a:	0c 12       	push	r12		
    c34c:	1f 42 02 02 	mov	&0x0202,r15	
    c350:	0f 93       	tst	r15		
    c352:	0a 20       	jnz	$+22     	;abs 0xc368
    c354:	3e 40 94 01 	mov	#404,	r14	;#0x0194
    c358:	3f 40 00 40 	mov	#16384,	r15	;#0x4000
    c35c:	b0 12 dc c3 	call	#0xc3dc	
    c360:	b2 40 94 01 	mov	#404,	&0x0200	;#0x0194
    c364:	00 02 
    c366:	17 3c       	jmp	$+48     	;abs 0xc396
    c368:	1f 42 02 02 	mov	&0x0202,r15	
    c36c:	1f 93       	cmp	#1,	r15	;r3 As==01
    c36e:	0a 20       	jnz	$+22     	;abs 0xc384
    c370:	3e 40 96 01 	mov	#406,	r14	;#0x0196
    c374:	3f 40 00 40 	mov	#16384,	r15	;#0x4000
    c378:	b0 12 dc c3 	call	#0xc3dc	
    c37c:	b2 40 96 01 	mov	#406,	&0x0200	;#0x0196
    c380:	00 02 
    c382:	09 3c       	jmp	$+20     	;abs 0xc396
    c384:	3e 40 74 01 	mov	#372,	r14	;#0x0174
    c388:	3f 40 00 40 	mov	#16384,	r15	;#0x4000
    c38c:	b0 12 dc c3 	call	#0xc3dc	
    c390:	b2 40 74 01 	mov	#372,	&0x0200	;#0x0174
    c394:	00 02 
    c396:	1f 42 02 02 	mov	&0x0202,r15	
    c39a:	1f 53       	inc	r15		
    c39c:	82 4f 02 02 	mov	r15,	&0x0202	
    c3a0:	1f 42 02 02 	mov	&0x0202,r15	
    c3a4:	3e 40 03 00 	mov	#3,	r14	;#0x0003
    c3a8:	b0 12 84 c8 	call	#0xc884	
    c3ac:	82 4f 02 02 	mov	r15,	&0x0202	
    c3b0:	03 43       	nop			
    c3b2:	5f 42 20 00 	mov.b	&0x0020,r15	
    c3b6:	7f f2       	and.b	#8,	r15	;r2 As==11
    c3b8:	4f 93       	tst.b	r15		
    c3ba:	fb 27       	jz	$-8      	;abs 0xc3b2
    c3bc:	3f 40 aa 29 	mov	#10666,	r15	;#0x29aa
    c3c0:	1f 83       	dec	r15		
    c3c2:	0f 93       	tst	r15		
    c3c4:	fd 23       	jnz	$-4      	;abs 0xc3c0
    c3c6:	5f 42 23 00 	mov.b	&0x0023,r15	
    c3ca:	7f f0 f7 ff 	and.b	#-9,	r15	;#0xfff7
    c3ce:	c2 4f 23 00 	mov.b	r15,	&0x0023	
    c3d2:	3c 41       	pop	r12		
    c3d4:	3d 41       	pop	r13		
    c3d6:	3e 41       	pop	r14		
    c3d8:	3f 41       	pop	r15		
    c3da:	00 13       	reti			

0000c3dc <initialize_dtc>:
    c3dc:	21 82       	sub	#4,	r1	;r2 As==10
    c3de:	81 4f 00 00 	mov	r15,	0(r1)	;0x0000(r1)
    c3e2:	81 4e 02 00 	mov	r14,	2(r1)	;0x0002(r1)
    c3e6:	1f 42 b0 01 	mov	&0x01b0,r15	
    c3ea:	3f f0 fd ff 	and	#-3,	r15	;#0xfffd
    c3ee:	82 4f b0 01 	mov	r15,	&0x01b0	
    c3f2:	82 43 bc 01 	mov	#0,	&0x01bc	;r3 As==00
    c3f6:	b2 40 10 00 	mov	#16,	&0x01b0	;#0x0010
    c3fa:	b0 01 
    c3fc:	03 43       	nop			
    c3fe:	1f 42 b2 01 	mov	&0x01b2,r15	
    c402:	1f f3       	and	#1,	r15	;r3 As==01
    c404:	4f 4f       	mov.b	r15,	r15	
    c406:	4f 93       	tst.b	r15		
    c408:	fa 23       	jnz	$-10     	;abs 0xc3fe
    c40a:	e2 42 48 00 	mov.b	#4,	&0x0048	;r2 As==10
    c40e:	d2 43 49 00 	mov.b	#1,	&0x0049	;r3 As==01
    c412:	1f 41 02 00 	mov	2(r1),	r15	;0x0002(r1)
    c416:	82 4f bc 01 	mov	r15,	&0x01bc	
    c41a:	1f 42 b0 01 	mov	&0x01b0,r15	
    c41e:	3f d0 a0 18 	bis	#6304,	r15	;#0x18a0
    c422:	82 4f b0 01 	mov	r15,	&0x01b0	
    c426:	2f 41       	mov	@r1,	r15	
    c428:	3f d0 fc 00 	bis	#252,	r15	;#0x00fc
    c42c:	82 4f b2 01 	mov	r15,	&0x01b2	
    c430:	2f 41       	mov	@r1,	r15	
    c432:	8f 10       	swpb	r15		
    c434:	4f 4f       	mov.b	r15,	r15	
    c436:	12 c3       	clrc			
    c438:	0f 10       	rrc	r15		
    c43a:	12 c3       	clrc			
    c43c:	0f 10       	rrc	r15		
    c43e:	12 c3       	clrc			
    c440:	0f 10       	rrc	r15		
    c442:	12 c3       	clrc			
    c444:	0f 10       	rrc	r15		
    c446:	0e 4f       	mov	r15,	r14	
    c448:	1f 43       	mov	#1,	r15	;r3 As==01
    c44a:	4e 4e       	mov.b	r14,	r14	
    c44c:	7e f0 0f 00 	and.b	#15,	r14	;#0x000f
    c450:	4e 93       	tst.b	r14		
    c452:	04 24       	jz	$+10     	;abs 0xc45c
    c454:	0f 5f       	rla	r15		
    c456:	7e 53       	add.b	#-1,	r14	;r3 As==11
    c458:	4e 93       	tst.b	r14		
    c45a:	fc 23       	jnz	$-6      	;abs 0xc454
    c45c:	4f 4f       	mov.b	r15,	r15	
    c45e:	c2 4f 4a 00 	mov.b	r15,	&0x004a	
    c462:	1f 42 b0 01 	mov	&0x01b0,r15	
    c466:	2f d3       	bis	#2,	r15	;r3 As==10
    c468:	82 4f b0 01 	mov	r15,	&0x01b0	
    c46c:	1f 42 b0 01 	mov	&0x01b0,r15	
    c470:	1f d3       	bis	#1,	r15	;r3 As==01
    c472:	82 4f b0 01 	mov	r15,	&0x01b0	
    c476:	21 52       	add	#4,	r1	;r2 As==10
    c478:	30 41       	ret			

0000c47a <_xtoa>:
    c47a:	0b 12       	push	r11		
    c47c:	0a 12       	push	r10		
    c47e:	09 12       	push	r9		
    c480:	08 12       	push	r8		
    c482:	07 12       	push	r7		
    c484:	0a 4e       	mov	r14,	r10	
    c486:	0b 4f       	mov	r15,	r11	
    c488:	07 4d       	mov	r13,	r7	
    c48a:	0e 93       	tst	r14		
    c48c:	04 20       	jnz	$+10     	;abs 0xc496
    c48e:	0b 93       	tst	r11		
    c490:	1f 24       	jz	$+64     	;abs 0xc4d0
    c492:	01 3c       	jmp	$+4      	;abs 0xc496
    c494:	27 52       	add	#4,	r7	;r2 As==10
    c496:	1b 97 02 00 	cmp	2(r7),	r11	;0x0002(r7)
    c49a:	fc 2b       	jnc	$-6      	;abs 0xc494
    c49c:	02 20       	jnz	$+6      	;abs 0xc4a2
    c49e:	2a 97       	cmp	@r7,	r10	
    c4a0:	f9 2b       	jnc	$-12     	;abs 0xc494
    c4a2:	38 47       	mov	@r7+,	r8	
    c4a4:	39 47       	mov	@r7+,	r9	
    c4a6:	7f 40 30 00 	mov.b	#48,	r15	;#0x0030
    c4aa:	03 3c       	jmp	$+8      	;abs 0xc4b2
    c4ac:	5f 53       	inc.b	r15		
    c4ae:	0a 88       	sub	r8,	r10	
    c4b0:	0b 79       	subc	r9,	r11	
    c4b2:	0b 99       	cmp	r9,	r11	
    c4b4:	04 28       	jnc	$+10     	;abs 0xc4be
    c4b6:	09 9b       	cmp	r11,	r9	
    c4b8:	f9 2b       	jnc	$-12     	;abs 0xc4ac
    c4ba:	0a 98       	cmp	r8,	r10	
    c4bc:	f7 2f       	jc	$-16     	;abs 0xc4ac
    c4be:	b0 12 e4 c6 	call	#0xc6e4	
    c4c2:	18 f3       	and	#1,	r8	;r3 As==01
    c4c4:	09 f3       	and	#0,	r9	;r3 As==00
    c4c6:	08 93       	tst	r8		
    c4c8:	07 20       	jnz	$+16     	;abs 0xc4d8
    c4ca:	09 93       	tst	r9		
    c4cc:	ea 27       	jz	$-42     	;abs 0xc4a2
    c4ce:	04 3c       	jmp	$+10     	;abs 0xc4d8
    c4d0:	7f 40 30 00 	mov.b	#48,	r15	;#0x0030
    c4d4:	b0 12 e4 c6 	call	#0xc6e4	
    c4d8:	37 41       	pop	r7		
    c4da:	38 41       	pop	r8		
    c4dc:	39 41       	pop	r9		
    c4de:	3a 41       	pop	r10		
    c4e0:	3b 41       	pop	r11		
    c4e2:	30 41       	ret			

0000c4e4 <_puth>:
    c4e4:	3f f0 0f 00 	and	#15,	r15	;#0x000f
    c4e8:	5f 4f 5c cd 	mov.b	-12964(r15),r15	;0xcd5c(r15)
    c4ec:	b0 12 e4 c6 	call	#0xc6e4	
    c4f0:	30 41       	ret			

0000c4f2 <cio_print>:
    c4f2:	0b 12       	push	r11		
    c4f4:	0b 4f       	mov	r15,	r11	
    c4f6:	02 3c       	jmp	$+6      	;abs 0xc4fc
    c4f8:	b0 12 e4 c6 	call	#0xc6e4	
    c4fc:	7f 4b       	mov.b	@r11+,	r15	
    c4fe:	4f 93       	tst.b	r15		
    c500:	fb 23       	jnz	$-8      	;abs 0xc4f8
    c502:	3b 41       	pop	r11		
    c504:	30 41       	ret			

0000c506 <cio_printi>:
    c506:	0b 12       	push	r11		
    c508:	0a 12       	push	r10		
    c50a:	09 12       	push	r9		
    c50c:	31 50 e0 ff 	add	#-32,	r1	;#0xffe0
    c510:	0b 4f       	mov	r15,	r11	
    c512:	0f 93       	tst	r15		
    c514:	06 24       	jz	$+14     	;abs 0xc522
    c516:	09 41       	mov	r1,	r9	
    c518:	39 50 1e 00 	add	#30,	r9	;#0x001e
    c51c:	3a 40 0f 00 	mov	#15,	r10	;#0x000f
    c520:	18 3c       	jmp	$+50     	;abs 0xc552
    c522:	7f 40 30 00 	mov.b	#48,	r15	;#0x0030
    c526:	b0 12 e4 c6 	call	#0xc6e4	
    c52a:	24 3c       	jmp	$+74     	;abs 0xc574
    c52c:	3e 40 0a 00 	mov	#10,	r14	;#0x000a
    c530:	0f 4b       	mov	r11,	r15	
    c532:	b0 12 84 c8 	call	#0xc884	
    c536:	3f 50 30 00 	add	#48,	r15	;#0x0030
    c53a:	89 4f 00 00 	mov	r15,	0(r9)	;0x0000(r9)
    c53e:	3e 40 0a 00 	mov	#10,	r14	;#0x000a
    c542:	0f 4b       	mov	r11,	r15	
    c544:	b0 12 52 c8 	call	#0xc852	
    c548:	0b 4f       	mov	r15,	r11	
    c54a:	3a 53       	add	#-1,	r10	;r3 As==11
    c54c:	29 83       	decd	r9		
    c54e:	0a 93       	tst	r10		
    c550:	02 24       	jz	$+6      	;abs 0xc556
    c552:	1b 93       	cmp	#1,	r11	;r3 As==01
    c554:	eb 37       	jge	$-40     	;abs 0xc52c
    c556:	09 4a       	mov	r10,	r9	
    c558:	0b 43       	clr	r11		
    c55a:	07 3c       	jmp	$+16     	;abs 0xc56a
    c55c:	0f 4a       	mov	r10,	r15	
    c55e:	0f 5f       	rla	r15		
    c560:	0f 51       	add	r1,	r15	
    c562:	0f 5b       	add	r11,	r15	
    c564:	6f 4f       	mov.b	@r15,	r15	
    c566:	b0 12 e4 c6 	call	#0xc6e4	
    c56a:	19 53       	inc	r9		
    c56c:	2b 53       	incd	r11		
    c56e:	39 90 10 00 	cmp	#16,	r9	;#0x0010
    c572:	f4 23       	jnz	$-22     	;abs 0xc55c
    c574:	31 50 20 00 	add	#32,	r1	;#0x0020
    c578:	39 41       	pop	r9		
    c57a:	3a 41       	pop	r10		
    c57c:	3b 41       	pop	r11		
    c57e:	30 41       	ret			

0000c580 <cio_printb>:
    c580:	0b 12       	push	r11		
    c582:	0a 12       	push	r10		
    c584:	0a 4f       	mov	r15,	r10	
    c586:	0b 4e       	mov	r14,	r11	
    c588:	12 3c       	jmp	$+38     	;abs 0xc5ae
    c58a:	0d 4a       	mov	r10,	r13	
    c58c:	4e 4b       	mov.b	r11,	r14	
    c58e:	7e f0 0f 00 	and.b	#15,	r14	;#0x000f
    c592:	4e 93       	tst.b	r14		
    c594:	03 24       	jz	$+8      	;abs 0xc59c
    c596:	0d 11       	rra	r13		
    c598:	7e 53       	add.b	#-1,	r14	;r3 As==11
    c59a:	fb 3f       	jmp	$-8      	;abs 0xc592
    c59c:	1d f3       	and	#1,	r13	;r3 As==01
    c59e:	03 24       	jz	$+8      	;abs 0xc5a6
    c5a0:	7f 40 31 00 	mov.b	#49,	r15	;#0x0031
    c5a4:	02 3c       	jmp	$+6      	;abs 0xc5aa
    c5a6:	7f 40 30 00 	mov.b	#48,	r15	;#0x0030
    c5aa:	b0 12 e4 c6 	call	#0xc6e4	
    c5ae:	3b 53       	add	#-1,	r11	;r3 As==11
    c5b0:	0b 93       	tst	r11		
    c5b2:	eb 37       	jge	$-40     	;abs 0xc58a
    c5b4:	3a 41       	pop	r10		
    c5b6:	3b 41       	pop	r11		
    c5b8:	30 41       	ret			

0000c5ba <cio_printf>:
    c5ba:	0b 12       	push	r11		
    c5bc:	0a 12       	push	r10		
    c5be:	09 12       	push	r9		
    c5c0:	08 12       	push	r8		
    c5c2:	0b 41       	mov	r1,	r11	
    c5c4:	3b 50 0a 00 	add	#10,	r11	;#0x000a
    c5c8:	3a 4b       	mov	@r11+,	r10	
    c5ca:	84 3c       	jmp	$+266    	;abs 0xc6d4
    c5cc:	7f 90 25 00 	cmp.b	#37,	r15	;#0x0025
    c5d0:	7e 20       	jnz	$+254    	;abs 0xc6ce
    c5d2:	5f 4a 01 00 	mov.b	1(r10),	r15	;0x0001(r10)
    c5d6:	2a 53       	incd	r10		
    c5d8:	7f 90 6e 00 	cmp.b	#110,	r15	;#0x006e
    c5dc:	3e 24       	jz	$+126    	;abs 0xc65a
    c5de:	7f 90 6f 00 	cmp.b	#111,	r15	;#0x006f
    c5e2:	10 34       	jge	$+34     	;abs 0xc604
    c5e4:	7f 90 69 00 	cmp.b	#105,	r15	;#0x0069
    c5e8:	23 24       	jz	$+72     	;abs 0xc630
    c5ea:	7f 90 6a 00 	cmp.b	#106,	r15	;#0x006a
    c5ee:	06 34       	jge	$+14     	;abs 0xc5fc
    c5f0:	4f 93       	tst.b	r15		
    c5f2:	73 24       	jz	$+232    	;abs 0xc6da
    c5f4:	7f 90 63 00 	cmp.b	#99,	r15	;#0x0063
    c5f8:	6b 20       	jnz	$+216    	;abs 0xc6d0
    c5fa:	13 3c       	jmp	$+40     	;abs 0xc622
    c5fc:	7f 90 6c 00 	cmp.b	#108,	r15	;#0x006c
    c600:	67 20       	jnz	$+208    	;abs 0xc6d0
    c602:	2b 3c       	jmp	$+88     	;abs 0xc65a
    c604:	7f 90 75 00 	cmp.b	#117,	r15	;#0x0075
    c608:	13 24       	jz	$+40     	;abs 0xc630
    c60a:	7f 90 78 00 	cmp.b	#120,	r15	;#0x0078
    c60e:	43 24       	jz	$+136    	;abs 0xc696
    c610:	7f 90 73 00 	cmp.b	#115,	r15	;#0x0073
    c614:	5d 20       	jnz	$+188    	;abs 0xc6d0
    c616:	09 4b       	mov	r11,	r9	
    c618:	29 53       	incd	r9		
    c61a:	2f 4b       	mov	@r11,	r15	
    c61c:	b0 12 f2 c4 	call	#0xc4f2	
    c620:	05 3c       	jmp	$+12     	;abs 0xc62c
    c622:	09 4b       	mov	r11,	r9	
    c624:	29 53       	incd	r9		
    c626:	6f 4b       	mov.b	@r11,	r15	
    c628:	b0 12 e4 c6 	call	#0xc6e4	
    c62c:	0b 49       	mov	r9,	r11	
    c62e:	52 3c       	jmp	$+166    	;abs 0xc6d4
    c630:	09 4b       	mov	r11,	r9	
    c632:	29 53       	incd	r9		
    c634:	2b 4b       	mov	@r11,	r11	
    c636:	7f 90 69 00 	cmp.b	#105,	r15	;#0x0069
    c63a:	08 20       	jnz	$+18     	;abs 0xc64c
    c63c:	0b 93       	tst	r11		
    c63e:	06 34       	jge	$+14     	;abs 0xc64c
    c640:	3b e3       	inv	r11		
    c642:	1b 53       	inc	r11		
    c644:	7f 40 2d 00 	mov.b	#45,	r15	;#0x002d
    c648:	b0 12 e4 c6 	call	#0xc6e4	
    c64c:	3d 40 48 cd 	mov	#-12984,r13	;#0xcd48
    c650:	0e 4b       	mov	r11,	r14	
    c652:	0f 43       	clr	r15		
    c654:	b0 12 7a c4 	call	#0xc47a	
    c658:	e9 3f       	jmp	$-44     	;abs 0xc62c
    c65a:	08 4b       	mov	r11,	r8	
    c65c:	28 52       	add	#4,	r8	;r2 As==10
    c65e:	29 4b       	mov	@r11,	r9	
    c660:	1b 4b 02 00 	mov	2(r11),	r11	;0x0002(r11)
    c664:	7f 90 6c 00 	cmp.b	#108,	r15	;#0x006c
    c668:	0e 20       	jnz	$+30     	;abs 0xc686
    c66a:	0b 93       	tst	r11		
    c66c:	0c 34       	jge	$+26     	;abs 0xc686
    c66e:	0c 49       	mov	r9,	r12	
    c670:	0d 4b       	mov	r11,	r13	
    c672:	3c e3       	inv	r12		
    c674:	3d e3       	inv	r13		
    c676:	1c 53       	inc	r12		
    c678:	0d 63       	adc	r13		
    c67a:	09 4c       	mov	r12,	r9	
    c67c:	0b 4d       	mov	r13,	r11	
    c67e:	7f 40 2d 00 	mov.b	#45,	r15	;#0x002d
    c682:	b0 12 e4 c6 	call	#0xc6e4	
    c686:	3d 40 34 cd 	mov	#-13004,r13	;#0xcd34
    c68a:	0e 49       	mov	r9,	r14	
    c68c:	0f 4b       	mov	r11,	r15	
    c68e:	b0 12 7a c4 	call	#0xc47a	
    c692:	0b 48       	mov	r8,	r11	
    c694:	1f 3c       	jmp	$+64     	;abs 0xc6d4
    c696:	09 4b       	mov	r11,	r9	
    c698:	29 53       	incd	r9		
    c69a:	2b 4b       	mov	@r11,	r11	
    c69c:	0f 4b       	mov	r11,	r15	
    c69e:	8f 10       	swpb	r15		
    c6a0:	8f 11       	sxt	r15		
    c6a2:	0f 11       	rra	r15		
    c6a4:	0f 11       	rra	r15		
    c6a6:	0f 11       	rra	r15		
    c6a8:	0f 11       	rra	r15		
    c6aa:	b0 12 e4 c4 	call	#0xc4e4	
    c6ae:	0f 4b       	mov	r11,	r15	
    c6b0:	8f 10       	swpb	r15		
    c6b2:	8f 11       	sxt	r15		
    c6b4:	b0 12 e4 c4 	call	#0xc4e4	
    c6b8:	0f 4b       	mov	r11,	r15	
    c6ba:	0f 11       	rra	r15		
    c6bc:	0f 11       	rra	r15		
    c6be:	0f 11       	rra	r15		
    c6c0:	0f 11       	rra	r15		
    c6c2:	b0 12 e4 c4 	call	#0xc4e4	
    c6c6:	0f 4b       	mov	r11,	r15	
    c6c8:	b0 12 e4 c4 	call	#0xc4e4	
    c6cc:	af 3f       	jmp	$-160    	;abs 0xc62c
    c6ce:	1a 53       	inc	r10		
    c6d0:	b0 12 e4 c6 	call	#0xc6e4	
    c6d4:	6f 4a       	mov.b	@r10,	r15	
    c6d6:	4f 93       	tst.b	r15		
    c6d8:	79 23       	jnz	$-268    	;abs 0xc5cc
    c6da:	38 41       	pop	r8		
    c6dc:	39 41       	pop	r9		
    c6de:	3a 41       	pop	r10		
    c6e0:	3b 41       	pop	r11		
    c6e2:	30 41       	ret			

0000c6e4 <cio_printc>:
    c6e4:	b0 12 30 c8 	call	#0xc830	
    c6e8:	30 41       	ret			

0000c6ea <cio_getc>:
    c6ea:	b0 12 44 c8 	call	#0xc844	
    c6ee:	30 41       	ret			

0000c6f0 <serial_clk_init>:
    c6f0:	f2 d0 06 00 	bis.b	#6,	&0x0026	;#0x0006
    c6f4:	26 00 
    c6f6:	f2 d0 06 00 	bis.b	#6,	&0x0041	;#0x0006
    c6fa:	41 00 
    c6fc:	f2 d0 80 ff 	bis.b	#-128,	&0x0061	;#0xff80
    c700:	61 00 
    c702:	3e 90 00 12 	cmp	#4608,	r14	;#0x1200
    c706:	04 20       	jnz	$+10     	;abs 0xc710
    c708:	3f 90 7a 00 	cmp	#122,	r15	;#0x007a
    c70c:	67 20       	jnz	$+208    	;abs 0xc7dc
    c70e:	07 3c       	jmp	$+16     	;abs 0xc71e
    c710:	3e 90 00 24 	cmp	#9216,	r14	;#0x2400
    c714:	63 20       	jnz	$+200    	;abs 0xc7dc
    c716:	3f 90 f4 00 	cmp	#244,	r15	;#0x00f4
    c71a:	60 20       	jnz	$+194    	;abs 0xc7dc
    c71c:	2a 3c       	jmp	$+86     	;abs 0xc772
    c71e:	3d 90 00 84 	cmp	#-31744,r13	;#0x8400
    c722:	21 24       	jz	$+68     	;abs 0xc766
    c724:	3d 90 01 84 	cmp	#-31743,r13	;#0x8401
    c728:	07 2c       	jc	$+16     	;abs 0xc738
    c72a:	3d 90 80 25 	cmp	#9600,	r13	;#0x2580
    c72e:	38 24       	jz	$+114    	;abs 0xc7a0
    c730:	3d 90 00 4b 	cmp	#19200,	r13	;#0x4b00
    c734:	35 20       	jnz	$+108    	;abs 0xc7a0
    c736:	0a 3c       	jmp	$+22     	;abs 0xc74c
    c738:	3d 90 00 c2 	cmp	#-15872,r13	;#0xc200
    c73c:	42 24       	jz	$+134    	;abs 0xc7c2
    c73e:	3d 90 00 e1 	cmp	#-7936,	r13	;#0xe100
    c742:	39 24       	jz	$+116    	;abs 0xc7b6
    c744:	3d 90 00 96 	cmp	#-27136,r13	;#0x9600
    c748:	2b 20       	jnz	$+88     	;abs 0xc7a0
    c74a:	07 3c       	jmp	$+16     	;abs 0xc75a
    c74c:	f2 40 1a 00 	mov.b	#26,	&0x0062	;#0x001a
    c750:	62 00 
    c752:	f2 40 11 00 	mov.b	#17,	&0x0064	;#0x0011
    c756:	64 00 
    c758:	5a 3c       	jmp	$+182    	;abs 0xc80e
    c75a:	f2 40 0d 00 	mov.b	#13,	&0x0062	;#0x000d
    c75e:	62 00 
    c760:	d2 43 64 00 	mov.b	#1,	&0x0064	;r3 As==01
    c764:	54 3c       	jmp	$+170    	;abs 0xc80e
    c766:	e2 43 62 00 	mov.b	#2,	&0x0062	;r3 As==10
    c76a:	f2 40 27 00 	mov.b	#39,	&0x0064	;#0x0027
    c76e:	64 00 
    c770:	4e 3c       	jmp	$+158    	;abs 0xc80e
    c772:	3d 90 00 84 	cmp	#-31744,r13	;#0x8400
    c776:	25 24       	jz	$+76     	;abs 0xc7c2
    c778:	3d 90 01 84 	cmp	#-31743,r13	;#0x8401
    c77c:	07 2c       	jc	$+16     	;abs 0xc78c
    c77e:	3d 90 80 25 	cmp	#9600,	r13	;#0x2580
    c782:	25 24       	jz	$+76     	;abs 0xc7ce
    c784:	3d 90 00 4b 	cmp	#19200,	r13	;#0x4b00
    c788:	22 20       	jnz	$+70     	;abs 0xc7ce
    c78a:	0a 3c       	jmp	$+22     	;abs 0xc7a0
    c78c:	3d 90 00 c2 	cmp	#-15872,r13	;#0xc200
    c790:	12 24       	jz	$+38     	;abs 0xc7b6
    c792:	3d 90 00 e1 	cmp	#-7936,	r13	;#0xe100
    c796:	08 24       	jz	$+18     	;abs 0xc7a8
    c798:	3d 90 00 96 	cmp	#-27136,r13	;#0x9600
    c79c:	18 20       	jnz	$+50     	;abs 0xc7ce
    c79e:	d6 3f       	jmp	$-82     	;abs 0xc74c
    c7a0:	f2 40 34 00 	mov.b	#52,	&0x0062	;#0x0034
    c7a4:	62 00 
    c7a6:	d5 3f       	jmp	$-84     	;abs 0xc752
    c7a8:	f2 40 11 00 	mov.b	#17,	&0x0062	;#0x0011
    c7ac:	62 00 
    c7ae:	f2 40 61 00 	mov.b	#97,	&0x0064	;#0x0061
    c7b2:	64 00 
    c7b4:	2c 3c       	jmp	$+90     	;abs 0xc80e
    c7b6:	f2 42 62 00 	mov.b	#8,	&0x0062	;r2 As==11
    c7ba:	f2 40 b1 ff 	mov.b	#-79,	&0x0064	;#0xffb1
    c7be:	64 00 
    c7c0:	26 3c       	jmp	$+78     	;abs 0xc80e
    c7c2:	e2 42 62 00 	mov.b	#4,	&0x0062	;r2 As==10
    c7c6:	f2 40 3b 00 	mov.b	#59,	&0x0064	;#0x003b
    c7ca:	64 00 
    c7cc:	20 3c       	jmp	$+66     	;abs 0xc80e
    c7ce:	f2 40 68 00 	mov.b	#104,	&0x0062	;#0x0068
    c7d2:	62 00 
    c7d4:	f2 40 31 00 	mov.b	#49,	&0x0064	;#0x0031
    c7d8:	64 00 
    c7da:	19 3c       	jmp	$+52     	;abs 0xc80e
    c7dc:	3d 90 00 4b 	cmp	#19200,	r13	;#0x4b00
    c7e0:	0a 24       	jz	$+22     	;abs 0xc7f6
    c7e2:	3d 90 00 e1 	cmp	#-7936,	r13	;#0xe100
    c7e6:	0e 24       	jz	$+30     	;abs 0xc804
    c7e8:	f2 40 06 00 	mov.b	#6,	&0x0062	;#0x0006
    c7ec:	62 00 
    c7ee:	f2 40 81 ff 	mov.b	#-127,	&0x0064	;#0xff81
    c7f2:	64 00 
    c7f4:	0c 3c       	jmp	$+26     	;abs 0xc80e
    c7f6:	f2 40 03 00 	mov.b	#3,	&0x0062	;#0x0003
    c7fa:	62 00 
    c7fc:	f2 40 41 00 	mov.b	#65,	&0x0064	;#0x0041
    c800:	64 00 
    c802:	05 3c       	jmp	$+12     	;abs 0xc80e
    c804:	d2 43 62 00 	mov.b	#1,	&0x0062	;r3 As==01
    c808:	f2 40 0f 00 	mov.b	#15,	&0x0064	;#0x000f
    c80c:	64 00 
    c80e:	c2 43 63 00 	mov.b	#0,	&0x0063	;r3 As==00
    c812:	f2 f0 fe ff 	and.b	#-2,	&0x0061	;#0xfffe
    c816:	61 00 
    c818:	30 41       	ret			

0000c81a <serial_init>:
    c81a:	0d 4f       	mov	r15,	r13	
    c81c:	3e 40 40 42 	mov	#16960,	r14	;#0x4240
    c820:	3f 40 0f 00 	mov	#15,	r15	;#0x000f
    c824:	b0 12 f0 c6 	call	#0xc6f0	
    c828:	30 41       	ret			

0000c82a <serial_send>:
    c82a:	c2 4f 67 00 	mov.b	r15,	&0x0067	
    c82e:	30 41       	ret			

0000c830 <serial_send_blocking>:
    c830:	5e 42 03 00 	mov.b	&0x0003,r14	
    c834:	2e f3       	and	#2,	r14	;r3 As==10
    c836:	fc 27       	jz	$-6      	;abs 0xc830
    c838:	c2 4f 67 00 	mov.b	r15,	&0x0067	
    c83c:	30 41       	ret			

0000c83e <serial_recv>:
    c83e:	5f 42 66 00 	mov.b	&0x0066,r15	
    c842:	30 41       	ret			

0000c844 <serial_recv_blocking>:
    c844:	5f 42 03 00 	mov.b	&0x0003,r15	
    c848:	1f f3       	and	#1,	r15	;r3 As==01
    c84a:	fc 27       	jz	$-6      	;abs 0xc844
    c84c:	5f 42 66 00 	mov.b	&0x0066,r15	
    c850:	30 41       	ret			

0000c852 <__divhi3>:
    c852:	0d 43       	clr	r13		
    c854:	0f 93       	tst	r15		
    c856:	04 34       	jge	$+10     	;abs 0xc860
    c858:	3d 40 03 00 	mov	#3,	r13	;#0x0003
    c85c:	3f e3       	inv	r15		
    c85e:	1f 53       	inc	r15		
    c860:	0e 93       	tst	r14		
    c862:	03 34       	jge	$+8      	;abs 0xc86a
    c864:	5d e3       	xor.b	#1,	r13	;r3 As==01
    c866:	3e e3       	inv	r14		
    c868:	1e 53       	inc	r14		
    c86a:	0d 12       	push	r13		
    c86c:	b0 12 8c c8 	call	#0xc88c	
    c870:	3d 41       	pop	r13		
    c872:	6d b3       	bit.b	#2,	r13	;r3 As==10
    c874:	02 24       	jz	$+6      	;abs 0xc87a
    c876:	3e e3       	inv	r14		
    c878:	1e 53       	inc	r14		
    c87a:	5d b3       	bit.b	#1,	r13	;r3 As==01
    c87c:	02 24       	jz	$+6      	;abs 0xc882
    c87e:	3f e3       	inv	r15		
    c880:	1f 53       	inc	r15		
    c882:	30 41       	ret			

0000c884 <__modhi3>:
    c884:	b0 12 52 c8 	call	#0xc852	
    c888:	0f 4e       	mov	r14,	r15	
    c88a:	30 41       	ret			

0000c88c <__udivhi3>:
    c88c:	7c 40 10 00 	mov.b	#16,	r12	;#0x0010
    c890:	0d 4e       	mov	r14,	r13	
    c892:	0e 43       	clr	r14		
    c894:	0f 5f       	rla	r15		
    c896:	0e 6e       	rlc	r14		
    c898:	0e 9d       	cmp	r13,	r14	
    c89a:	02 28       	jnc	$+6      	;abs 0xc8a0
    c89c:	0e 8d       	sub	r13,	r14	
    c89e:	1f d3       	bis	#1,	r15	;r3 As==01
    c8a0:	1c 83       	dec	r12		
    c8a2:	f8 23       	jnz	$-14     	;abs 0xc894
    c8a4:	30 41       	ret			

0000c8a6 <__umodhi3>:
    c8a6:	b0 12 8c c8 	call	#0xc88c	
    c8aa:	0f 4e       	mov	r14,	r15	
    c8ac:	30 41       	ret			

0000c8ae <_unexpected_>:
    c8ae:	00 13       	reti			

Disassembly of section .rodata:

0000c8b0 <colors-0x5c>:
    c8b0:	42 6c       	addc.b	r12,	r2	
    c8b2:	61 63       	addc.b	#2,	r1	;r3 As==10
    c8b4:	6b 00       	.word	0x006b;	????	
    c8b6:	52 65 64 00 	addc.b	100(r5),r2	;0x0064(r5)
    c8ba:	4f 72       	subc.b	r2,	r15	
    c8bc:	61 6e       	addc.b	@r14,	r1	
    c8be:	67 65       	addc.b	@r5,	r7	
    c8c0:	00 47       	br	r7		
    c8c2:	72 65       	addc.b	@r5+,	r2	
    c8c4:	65 6e       	addc.b	@r14,	r5	
    c8c6:	00 43       	clr	r0		
    c8c8:	68 61       	addc.b	@r1,	r8	
    c8ca:	72 74       	subc.b	@r4+,	r2	
    c8cc:	72 65       	addc.b	@r5+,	r2	
    c8ce:	75 73       	subc.b	#-1,	r5	;r3 As==11
    c8d0:	65 00       	.word	0x0065;	????	
    c8d2:	59 65 6c 6c 	addc.b	27756(r5),r9	;0x6c6c(r5)
    c8d6:	6f 77       	subc.b	@r7,	r15	
    c8d8:	00 47       	br	r7		
    c8da:	72 61       	addc.b	@r1+,	r2	
    c8dc:	79 00       	.word	0x0079;	????	
    c8de:	49 6e       	addc.b	r14,	r9	
    c8e0:	64 69       	addc.b	@r9,	r4	
    c8e2:	67 6f       	addc.b	@r15,	r7	
    c8e4:	00 50       	rla	r0		
    c8e6:	69 6e       	addc.b	@r14,	r9	
    c8e8:	6b 00       	.word	0x006b;	????	
    c8ea:	41 71       	subc.b	r1,	r1	
    c8ec:	75 61       	addc.b	@r1+,	r5	
    c8ee:	00 54       	add	r4,	r0	
    c8f0:	65 61       	addc.b	@r1,	r5	
    c8f2:	6c 00       	.word	0x006c;	????	
    c8f4:	42 6c       	addc.b	r12,	r2	
    c8f6:	75 65       	addc.b	@r5+,	r5	
    c8f8:	00 57       	add	r7,	r0	
    c8fa:	68 69       	addc.b	@r9,	r8	
    c8fc:	74 65       	addc.b	@r5+,	r4	
    c8fe:	00 50       	rla	r0		
    c900:	75 72       	subc.b	#8,	r5	;r2 As==11
    c902:	70 6c       	addc.b	@r12+,	r0	
    c904:	65 00       	.word	0x0065;	????	
    c906:	43 79       	.word	0x7943;	????	Illegal as 2-op instr
    c908:	61 6e       	addc.b	@r14,	r1	
	...

0000c90c <colors>:
    c90c:	b0 c8 b0 c8 	bic	@r8+,	-14160(r0);PC rel. 0x91be
    c910:	b0 c8 b0 c8 	bic	@r8+,	-14160(r0);PC rel. 0x91c2
    c914:	b6 c8 b6 c8 	bic	@r8+,	-14154(r6);0xc8b6(r6)
    c918:	b6 c8 b6 c8 	bic	@r8+,	-14154(r6);0xc8b6(r6)
    c91c:	b0 c8 b0 c8 	bic	@r8+,	-14160(r0);PC rel. 0x91ce
    c920:	b0 c8 b0 c8 	bic	@r8+,	-14160(r0);PC rel. 0x91d2
    c924:	b6 c8 b6 c8 	bic	@r8+,	-14154(r6);0xc8b6(r6)
    c928:	b6 c8 b6 c8 	bic	@r8+,	-14154(r6);0xc8b6(r6)
    c92c:	b0 c8 b0 c8 	bic	@r8+,	-14160(r0);PC rel. 0x91de
    c930:	b0 c8 b0 c8 	bic	@r8+,	-14160(r0);PC rel. 0x91e2
    c934:	b6 c8 b6 c8 	bic	@r8+,	-14154(r6);0xc8b6(r6)
    c938:	b6 c8 b6 c8 	bic	@r8+,	-14154(r6);0xc8b6(r6)
    c93c:	b0 c8 b0 c8 	bic	@r8+,	-14160(r0);PC rel. 0x91ee
    c940:	b0 c8 ba c8 	bic	@r8+,	-14150(r0);PC rel. 0x91fc
    c944:	ba c8 ba c8 	bic	@r8+,	-14150(r10);0xc8ba(r10)
    c948:	ba c8 ba c8 	bic	@r8+,	-14150(r10);0xc8ba(r10)
    c94c:	c1 c8 c1 c8 	bic.b	r8,	-14143(r1);0xc8c1(r1)
    c950:	c1 c8 c7 c8 	bic.b	r8,	-14137(r1);0xc8c7(r1)
    c954:	ba c8 ba c8 	bic	@r8+,	-14150(r10);0xc8ba(r10)
    c958:	ba c8 ba c8 	bic	@r8+,	-14150(r10);0xc8ba(r10)
    c95c:	c1 c8 c1 c8 	bic.b	r8,	-14143(r1);0xc8c1(r1)
    c960:	c1 c8 c7 c8 	bic.b	r8,	-14137(r1);0xc8c7(r1)
    c964:	c7 c8 ba c8 	bic.b	r8,	-14150(r7);0xc8ba(r7)
    c968:	ba c8 ba c8 	bic	@r8+,	-14150(r10);0xc8ba(r10)
    c96c:	c1 c8 c1 c8 	bic.b	r8,	-14143(r1);0xc8c1(r1)
    c970:	c1 c8 c7 c8 	bic.b	r8,	-14137(r1);0xc8c7(r1)
    c974:	c7 c8 c7 c8 	bic.b	r8,	-14137(r7);0xc8c7(r7)
    c978:	d2 c8 d2 c8 	bic.b	-14126(r8),&0xc8c1	;0xc8d2(r8)
    c97c:	c1 c8 
    c97e:	c1 c8 c1 c8 	bic.b	r8,	-14143(r1);0xc8c1(r1)
    c982:	c7 c8 c7 c8 	bic.b	r8,	-14137(r7);0xc8c7(r7)
    c986:	c7 c8 d2 c8 	bic.b	r8,	-14126(r7);0xc8d2(r7)
    c98a:	d2 c8 b0 c8 	bic.b	-14160(r8),&0xc8b0	;0xc8b0(r8)
    c98e:	b0 c8 
    c990:	b0 c8 b0 c8 	bic	@r8+,	-14160(r0);PC rel. 0x9242
    c994:	b6 c8 b6 c8 	bic	@r8+,	-14154(r6);0xc8b6(r6)
    c998:	b6 c8 b6 c8 	bic	@r8+,	-14154(r6);0xc8b6(r6)
    c99c:	b0 c8 b0 c8 	bic	@r8+,	-14160(r0);PC rel. 0x924e
    c9a0:	b0 c8 b0 c8 	bic	@r8+,	-14160(r0);PC rel. 0x9252
    c9a4:	b6 c8 b6 c8 	bic	@r8+,	-14154(r6);0xc8b6(r6)
    c9a8:	b6 c8 b6 c8 	bic	@r8+,	-14154(r6);0xc8b6(r6)
    c9ac:	b0 c8 b0 c8 	bic	@r8+,	-14160(r0);PC rel. 0x925e
    c9b0:	b0 c8 b0 c8 	bic	@r8+,	-14160(r0);PC rel. 0x9262
    c9b4:	d9 c8 b6 c8 	bic.b	-14154(r8),-14154(r9);0xc8b6(r8), 0xc8b6(r9)
    c9b8:	b6 c8 
    c9ba:	b6 c8 b0 c8 	bic	@r8+,	-14160(r6);0xc8b0(r6)
    c9be:	b0 c8 b0 c8 	bic	@r8+,	-14160(r0);PC rel. 0x9270
    c9c2:	d9 c8 d9 c8 	bic.b	-14119(r8),-14150(r9);0xc8d9(r8), 0xc8ba(r9)
    c9c6:	ba c8 
    c9c8:	ba c8 ba c8 	bic	@r8+,	-14150(r10);0xc8ba(r10)
    c9cc:	c1 c8 c1 c8 	bic.b	r8,	-14143(r1);0xc8c1(r1)
    c9d0:	d9 c8 d9 c8 	bic.b	-14119(r8),-14119(r9);0xc8d9(r8), 0xc8d9(r9)
    c9d4:	d9 c8 
    c9d6:	ba c8 ba c8 	bic	@r8+,	-14150(r10);0xc8ba(r10)
    c9da:	ba c8 c1 c8 	bic	@r8+,	-14143(r10);0xc8c1(r10)
    c9de:	c1 c8 c1 c8 	bic.b	r8,	-14143(r1);0xc8c1(r1)
    c9e2:	c7 c8 c7 c8 	bic.b	r8,	-14137(r7);0xc8c7(r7)
    c9e6:	ba c8 ba c8 	bic	@r8+,	-14150(r10);0xc8ba(r10)
    c9ea:	ba c8 c1 c8 	bic	@r8+,	-14143(r10);0xc8c1(r10)
    c9ee:	c1 c8 c1 c8 	bic.b	r8,	-14143(r1);0xc8c1(r1)
    c9f2:	c7 c8 c7 c8 	bic.b	r8,	-14137(r7);0xc8c7(r7)
    c9f6:	c7 c8 d2 c8 	bic.b	r8,	-14126(r7);0xc8d2(r7)
    c9fa:	d2 c8 c1 c8 	bic.b	-14143(r8),&0xc8c1	;0xc8c1(r8)
    c9fe:	c1 c8 
    ca00:	c1 c8 c7 c8 	bic.b	r8,	-14137(r1);0xc8c7(r1)
    ca04:	c7 c8 c7 c8 	bic.b	r8,	-14137(r7);0xc8c7(r7)
    ca08:	d2 c8 d2 c8 	bic.b	-14126(r8),&0xc8b0	;0xc8d2(r8)
    ca0c:	b0 c8 
    ca0e:	b0 c8 b0 c8 	bic	@r8+,	-14160(r0);PC rel. 0x92c0
    ca12:	b0 c8 b6 c8 	bic	@r8+,	-14154(r0);PC rel. 0x92ca
    ca16:	b6 c8 b6 c8 	bic	@r8+,	-14154(r6);0xc8b6(r6)
    ca1a:	b6 c8 b0 c8 	bic	@r8+,	-14160(r6);0xc8b0(r6)
    ca1e:	b0 c8 b0 c8 	bic	@r8+,	-14160(r0);PC rel. 0x92d0
    ca22:	b0 c8 d9 c8 	bic	@r8+,	-14119(r0);PC rel. 0x92fd
    ca26:	b6 c8 b6 c8 	bic	@r8+,	-14154(r6);0xc8b6(r6)
    ca2a:	b6 c8 b0 c8 	bic	@r8+,	-14160(r6);0xc8b0(r6)
    ca2e:	b0 c8 b0 c8 	bic	@r8+,	-14160(r0);PC rel. 0x92e0
    ca32:	d9 c8 d9 c8 	bic.b	-14119(r8),-14119(r9);0xc8d9(r8), 0xc8d9(r9)
    ca36:	d9 c8 
    ca38:	b6 c8 b6 c8 	bic	@r8+,	-14154(r6);0xc8b6(r6)
    ca3c:	b0 c8 b0 c8 	bic	@r8+,	-14160(r0);PC rel. 0x92ee
    ca40:	d9 c8 d9 c8 	bic.b	-14119(r8),-14119(r9);0xc8d9(r8), 0xc8d9(r9)
    ca44:	d9 c8 
    ca46:	d9 c8 ba c8 	bic.b	-14150(r8),-14150(r9);0xc8ba(r8), 0xc8ba(r9)
    ca4a:	ba c8 
    ca4c:	c1 c8 d9 c8 	bic.b	r8,	-14119(r1);0xc8d9(r1)
    ca50:	d9 c8 d9 c8 	bic.b	-14119(r8),-14119(r9);0xc8d9(r8), 0xc8d9(r9)
    ca54:	d9 c8 
    ca56:	d9 c8 ba c8 	bic.b	-14150(r8),-14150(r9);0xc8ba(r8), 0xc8ba(r9)
    ca5a:	ba c8 
    ca5c:	c1 c8 c1 c8 	bic.b	r8,	-14143(r1);0xc8c1(r1)
    ca60:	d9 c8 d9 c8 	bic.b	-14119(r8),-14119(r9);0xc8d9(r8), 0xc8d9(r9)
    ca64:	d9 c8 
    ca66:	d9 c8 ba c8 	bic.b	-14150(r8),-14150(r9);0xc8ba(r8), 0xc8ba(r9)
    ca6a:	ba c8 
    ca6c:	c1 c8 c1 c8 	bic.b	r8,	-14143(r1);0xc8c1(r1)
    ca70:	c1 c8 c7 c8 	bic.b	r8,	-14137(r1);0xc8c7(r1)
    ca74:	c7 c8 c7 c8 	bic.b	r8,	-14137(r7);0xc8c7(r7)
    ca78:	d2 c8 d2 c8 	bic.b	-14126(r8),&0xc8c1	;0xc8d2(r8)
    ca7c:	c1 c8 
    ca7e:	c1 c8 c1 c8 	bic.b	r8,	-14143(r1);0xc8c1(r1)
    ca82:	c7 c8 c7 c8 	bic.b	r8,	-14137(r7);0xc8c7(r7)
    ca86:	c7 c8 d2 c8 	bic.b	r8,	-14126(r7);0xc8d2(r7)
    ca8a:	d2 c8 b0 c8 	bic.b	-14160(r8),&0xc8b0	;0xc8b0(r8)
    ca8e:	b0 c8 
    ca90:	b0 c8 de c8 	bic	@r8+,	-14114(r0);PC rel. 0x9370
    ca94:	e5 c8 e5 c8 	bic.b	@r8,	-14107(r5);0xc8e5(r5)
    ca98:	e5 c8 e5 c8 	bic.b	@r8,	-14107(r5);0xc8e5(r5)
    ca9c:	b0 c8 b0 c8 	bic	@r8+,	-14160(r0);PC rel. 0x934e
    caa0:	b0 c8 d9 c8 	bic	@r8+,	-14119(r0);PC rel. 0x937b
    caa4:	d9 c8 e5 c8 	bic.b	-14107(r8),-14107(r9);0xc8e5(r8), 0xc8e5(r9)
    caa8:	e5 c8 
    caaa:	e5 c8 b0 c8 	bic.b	@r8,	-14160(r5);0xc8b0(r5)
    caae:	b0 c8 d9 c8 	bic	@r8+,	-14119(r0);PC rel. 0x9389
    cab2:	d9 c8 d9 c8 	bic.b	-14119(r8),-14119(r9);0xc8d9(r8), 0xc8d9(r9)
    cab6:	d9 c8 
    cab8:	e5 c8 e5 c8 	bic.b	@r8,	-14107(r5);0xc8e5(r5)
    cabc:	ea c8 d9 c8 	bic.b	@r8,	-14119(r10);0xc8d9(r10)
    cac0:	d9 c8 d9 c8 	bic.b	-14119(r8),-14119(r9);0xc8d9(r8), 0xc8d9(r9)
    cac4:	d9 c8 
    cac6:	d9 c8 d9 c8 	bic.b	-14119(r8),-14150(r9);0xc8d9(r8), 0xc8ba(r9)
    caca:	ba c8 
    cacc:	ef c8 d9 c8 	bic.b	@r8,	-14119(r15);0xc8d9(r15)
    cad0:	d9 c8 d9 c8 	bic.b	-14119(r8),-14119(r9);0xc8d9(r8), 0xc8d9(r9)
    cad4:	d9 c8 
    cad6:	d9 c8 d9 c8 	bic.b	-14119(r8),-14150(r9);0xc8d9(r8), 0xc8ba(r9)
    cada:	ba c8 
    cadc:	ef c8 ef c8 	bic.b	@r8,	-14097(r15);0xc8ef(r15)
    cae0:	d9 c8 d9 c8 	bic.b	-14119(r8),-14119(r9);0xc8d9(r8), 0xc8d9(r9)
    cae4:	d9 c8 
    cae6:	d9 c8 d9 c8 	bic.b	-14119(r8),-14150(r9);0xc8d9(r8), 0xc8ba(r9)
    caea:	ba c8 
    caec:	ef c8 ef c8 	bic.b	@r8,	-14097(r15);0xc8ef(r15)
    caf0:	ef c8 d9 c8 	bic.b	@r8,	-14119(r15);0xc8d9(r15)
    caf4:	d9 c8 d9 c8 	bic.b	-14119(r8),-14119(r9);0xc8d9(r8), 0xc8d9(r9)
    caf8:	d9 c8 
    cafa:	d2 c8 ef c8 	bic.b	-14097(r8),&0xc8ef	;0xc8ef(r8)
    cafe:	ef c8 
    cb00:	ef c8 ef c8 	bic.b	@r8,	-14097(r15);0xc8ef(r15)
    cb04:	c7 c8 c7 c8 	bic.b	r8,	-14137(r7);0xc8c7(r7)
    cb08:	d2 c8 d2 c8 	bic.b	-14126(r8),&0xc8f4	;0xc8d2(r8)
    cb0c:	f4 c8 
    cb0e:	f4 c8 f4 c8 	bic.b	@r8+,	-14092(r4);0xc8f4(r4)
    cb12:	de c8 de c8 	bic.b	-14114(r8),-14107(r14);0xc8de(r8), 0xc8e5(r14)
    cb16:	e5 c8 
    cb18:	e5 c8 e5 c8 	bic.b	@r8,	-14107(r5);0xc8e5(r5)
    cb1c:	f4 c8 f4 c8 	bic.b	@r8+,	-14092(r4);0xc8f4(r4)
    cb20:	d9 c8 d9 c8 	bic.b	-14119(r8),-14119(r9);0xc8d9(r8), 0xc8d9(r9)
    cb24:	d9 c8 
    cb26:	e5 c8 e5 c8 	bic.b	@r8,	-14107(r5);0xc8e5(r5)
    cb2a:	e5 c8 f4 c8 	bic.b	@r8,	-14092(r5);0xc8f4(r5)
    cb2e:	d9 c8 d9 c8 	bic.b	-14119(r8),-14119(r9);0xc8d9(r8), 0xc8d9(r9)
    cb32:	d9 c8 
    cb34:	d9 c8 d9 c8 	bic.b	-14119(r8),-14107(r9);0xc8d9(r8), 0xc8e5(r9)
    cb38:	e5 c8 
    cb3a:	e5 c8 ea c8 	bic.b	@r8,	-14102(r5);0xc8ea(r5)
    cb3e:	d9 c8 d9 c8 	bic.b	-14119(r8),-14119(r9);0xc8d9(r8), 0xc8d9(r9)
    cb42:	d9 c8 
    cb44:	d9 c8 d9 c8 	bic.b	-14119(r8),-14119(r9);0xc8d9(r8), 0xc8d9(r9)
    cb48:	d9 c8 
    cb4a:	e5 c8 ea c8 	bic.b	@r8,	-14102(r5);0xc8ea(r5)
    cb4e:	d9 c8 d9 c8 	bic.b	-14119(r8),-14119(r9);0xc8d9(r8), 0xc8d9(r9)
    cb52:	d9 c8 
    cb54:	d9 c8 d9 c8 	bic.b	-14119(r8),-14119(r9);0xc8d9(r8), 0xc8d9(r9)
    cb58:	d9 c8 
    cb5a:	d9 c8 ef c8 	bic.b	-14097(r8),-14097(r9);0xc8ef(r8), 0xc8ef(r9)
    cb5e:	ef c8 
    cb60:	d9 c8 d9 c8 	bic.b	-14119(r8),-14119(r9);0xc8d9(r8), 0xc8d9(r9)
    cb64:	d9 c8 
    cb66:	d9 c8 d9 c8 	bic.b	-14119(r8),-14119(r9);0xc8d9(r8), 0xc8d9(r9)
    cb6a:	d9 c8 
    cb6c:	ef c8 ef c8 	bic.b	@r8,	-14097(r15);0xc8ef(r15)
    cb70:	ef c8 d9 c8 	bic.b	@r8,	-14119(r15);0xc8d9(r15)
    cb74:	d9 c8 d9 c8 	bic.b	-14119(r8),-14119(r9);0xc8d9(r8), 0xc8d9(r9)
    cb78:	d9 c8 
    cb7a:	f9 c8 ef c8 	bic.b	@r8+,	-14097(r9);0xc8ef(r9)
    cb7e:	ef c8 ef c8 	bic.b	@r8,	-14097(r15);0xc8ef(r15)
    cb82:	ef c8 d9 c8 	bic.b	@r8,	-14119(r15);0xc8d9(r15)
    cb86:	d9 c8 f9 c8 	bic.b	-14087(r8),-14087(r9);0xc8f9(r8), 0xc8f9(r9)
    cb8a:	f9 c8 
    cb8c:	f4 c8 f4 c8 	bic.b	@r8+,	-14092(r4);0xc8f4(r4)
    cb90:	f4 c8 de c8 	bic.b	@r8+,	-14114(r4);0xc8de(r4)
    cb94:	de c8 de c8 	bic.b	-14114(r8),-14107(r14);0xc8de(r8), 0xc8e5(r14)
    cb98:	e5 c8 
    cb9a:	e5 c8 f4 c8 	bic.b	@r8,	-14092(r5);0xc8f4(r5)
    cb9e:	f4 c8 f4 c8 	bic.b	@r8+,	-14092(r4);0xc8f4(r4)
    cba2:	de c8 de c8 	bic.b	-14114(r8),-14114(r14);0xc8de(r8), 0xc8de(r14)
    cba6:	de c8 
    cba8:	e5 c8 e5 c8 	bic.b	@r8,	-14107(r5);0xc8e5(r5)
    cbac:	f4 c8 f4 c8 	bic.b	@r8+,	-14092(r4);0xc8f4(r4)
    cbb0:	d9 c8 d9 c8 	bic.b	-14119(r8),-14119(r9);0xc8d9(r8), 0xc8d9(r9)
    cbb4:	d9 c8 
    cbb6:	d9 c8 e5 c8 	bic.b	-14107(r8),-14107(r9);0xc8e5(r8), 0xc8e5(r9)
    cbba:	e5 c8 
    cbbc:	ea c8 ea c8 	bic.b	@r8,	-14102(r10);0xc8ea(r10)
    cbc0:	d9 c8 d9 c8 	bic.b	-14119(r8),-14119(r9);0xc8d9(r8), 0xc8d9(r9)
    cbc4:	d9 c8 
    cbc6:	d9 c8 d9 c8 	bic.b	-14119(r8),-14107(r9);0xc8d9(r8), 0xc8e5(r9)
    cbca:	e5 c8 
    cbcc:	ea c8 ea c8 	bic.b	@r8,	-14102(r10);0xc8ea(r10)
    cbd0:	d9 c8 d9 c8 	bic.b	-14119(r8),-14119(r9);0xc8d9(r8), 0xc8d9(r9)
    cbd4:	d9 c8 
    cbd6:	d9 c8 d9 c8 	bic.b	-14119(r8),-14119(r9);0xc8d9(r8), 0xc8d9(r9)
    cbda:	d9 c8 
    cbdc:	ea c8 ea c8 	bic.b	@r8,	-14102(r10);0xc8ea(r10)
    cbe0:	d9 c8 d9 c8 	bic.b	-14119(r8),-14119(r9);0xc8d9(r8), 0xc8d9(r9)
    cbe4:	d9 c8 
    cbe6:	d9 c8 d9 c8 	bic.b	-14119(r8),-14087(r9);0xc8d9(r8), 0xc8f9(r9)
    cbea:	f9 c8 
    cbec:	ef c8 ef c8 	bic.b	@r8,	-14097(r15);0xc8ef(r15)
    cbf0:	ef c8 d9 c8 	bic.b	@r8,	-14119(r15);0xc8d9(r15)
    cbf4:	d9 c8 d9 c8 	bic.b	-14119(r8),-14087(r9);0xc8d9(r8), 0xc8f9(r9)
    cbf8:	f9 c8 
    cbfa:	f9 c8 ef c8 	bic.b	@r8+,	-14097(r9);0xc8ef(r9)
    cbfe:	ef c8 ef c8 	bic.b	@r8,	-14097(r15);0xc8ef(r15)
    cc02:	ef c8 d9 c8 	bic.b	@r8,	-14119(r15);0xc8d9(r15)
    cc06:	f9 c8 f9 c8 	bic.b	@r8+,	-14087(r9);0xc8f9(r9)
    cc0a:	f9 c8 f4 c8 	bic.b	@r8+,	-14092(r9);0xc8f4(r9)
    cc0e:	f4 c8 f4 c8 	bic.b	@r8+,	-14092(r4);0xc8f4(r4)
    cc12:	de c8 de c8 	bic.b	-14114(r8),-14114(r14);0xc8de(r8), 0xc8de(r14)
    cc16:	de c8 
    cc18:	ff c8 ff c8 	bic.b	@r8+,	-14081(r15);0xc8ff(r15)
    cc1c:	f4 c8 f4 c8 	bic.b	@r8+,	-14092(r4);0xc8f4(r4)
    cc20:	f4 c8 de c8 	bic.b	@r8+,	-14114(r4);0xc8de(r4)
    cc24:	de c8 de c8 	bic.b	-14114(r8),-14081(r14);0xc8de(r8), 0xc8ff(r14)
    cc28:	ff c8 
    cc2a:	ff c8 f4 c8 	bic.b	@r8+,	-14092(r15);0xc8f4(r15)
    cc2e:	f4 c8 f4 c8 	bic.b	@r8+,	-14092(r4);0xc8f4(r4)
    cc32:	de c8 de c8 	bic.b	-14114(r8),-14114(r14);0xc8de(r8), 0xc8de(r14)
    cc36:	de c8 
    cc38:	ff c8 ff c8 	bic.b	@r8+,	-14081(r15);0xc8ff(r15)
    cc3c:	ea c8 ea c8 	bic.b	@r8,	-14102(r10);0xc8ea(r10)
    cc40:	ea c8 d9 c8 	bic.b	@r8,	-14119(r10);0xc8d9(r10)
    cc44:	d9 c8 d9 c8 	bic.b	-14119(r8),-14119(r9);0xc8d9(r8), 0xc8d9(r9)
    cc48:	d9 c8 
    cc4a:	ff c8 ea c8 	bic.b	@r8+,	-14102(r15);0xc8ea(r15)
    cc4e:	ea c8 ea c8 	bic.b	@r8,	-14102(r10);0xc8ea(r10)
    cc52:	d9 c8 d9 c8 	bic.b	-14119(r8),-14119(r9);0xc8d9(r8), 0xc8d9(r9)
    cc56:	d9 c8 
    cc58:	d9 c8 f9 c8 	bic.b	-14087(r8),-14102(r9);0xc8f9(r8), 0xc8ea(r9)
    cc5c:	ea c8 
    cc5e:	ea c8 ea c8 	bic.b	@r8,	-14102(r10);0xc8ea(r10)
    cc62:	d9 c8 d9 c8 	bic.b	-14119(r8),-14119(r9);0xc8d9(r8), 0xc8d9(r9)
    cc66:	d9 c8 
    cc68:	f9 c8 f9 c8 	bic.b	@r8+,	-14087(r9);0xc8f9(r9)
    cc6c:	06 c9       	bic	r9,	r6	
    cc6e:	06 c9       	bic	r9,	r6	
    cc70:	06 c9       	bic	r9,	r6	
    cc72:	d9 c8 d9 c8 	bic.b	-14119(r8),-14087(r9);0xc8d9(r8), 0xc8f9(r9)
    cc76:	f9 c8 
    cc78:	f9 c8 f9 c8 	bic.b	@r8+,	-14087(r9);0xc8f9(r9)
    cc7c:	06 c9       	bic	r9,	r6	
    cc7e:	06 c9       	bic	r9,	r6	
    cc80:	06 c9       	bic	r9,	r6	
    cc82:	06 c9       	bic	r9,	r6	
    cc84:	f9 c8 f9 c8 	bic.b	@r8+,	-14087(r9);0xc8f9(r9)
    cc88:	f9 c8 f9 c8 	bic.b	@r8+,	-14087(r9);0xc8f9(r9)
    cc8c:	f4 c8 f4 c8 	bic.b	@r8+,	-14092(r4);0xc8f4(r4)
    cc90:	f4 c8 de c8 	bic.b	@r8+,	-14114(r4);0xc8de(r4)
    cc94:	de c8 de c8 	bic.b	-14114(r8),-14081(r14);0xc8de(r8), 0xc8ff(r14)
    cc98:	ff c8 
    cc9a:	ff c8 f4 c8 	bic.b	@r8+,	-14092(r15);0xc8f4(r15)
    cc9e:	f4 c8 f4 c8 	bic.b	@r8+,	-14092(r4);0xc8f4(r4)
    cca2:	de c8 de c8 	bic.b	-14114(r8),-14114(r14);0xc8de(r8), 0xc8de(r14)
    cca6:	de c8 
    cca8:	ff c8 ff c8 	bic.b	@r8+,	-14081(r15);0xc8ff(r15)
    ccac:	f4 c8 f4 c8 	bic.b	@r8+,	-14092(r4);0xc8f4(r4)
    ccb0:	f4 c8 de c8 	bic.b	@r8+,	-14114(r4);0xc8de(r4)
    ccb4:	de c8 de c8 	bic.b	-14114(r8),-14081(r14);0xc8de(r8), 0xc8ff(r14)
    ccb8:	ff c8 
    ccba:	ff c8 ea c8 	bic.b	@r8+,	-14102(r15);0xc8ea(r15)
    ccbe:	ea c8 ea c8 	bic.b	@r8,	-14102(r10);0xc8ea(r10)
    ccc2:	ea c8 de c8 	bic.b	@r8,	-14114(r10);0xc8de(r10)
    ccc6:	de c8 ff c8 	bic.b	-14081(r8),-14081(r14);0xc8ff(r8), 0xc8ff(r14)
    ccca:	ff c8 
    cccc:	ea c8 ea c8 	bic.b	@r8,	-14102(r10);0xc8ea(r10)
    ccd0:	ea c8 ea c8 	bic.b	@r8,	-14102(r10);0xc8ea(r10)
    ccd4:	d9 c8 d9 c8 	bic.b	-14119(r8),-14087(r9);0xc8d9(r8), 0xc8f9(r9)
    ccd8:	f9 c8 
    ccda:	f9 c8 ea c8 	bic.b	@r8+,	-14102(r9);0xc8ea(r9)
    ccde:	ea c8 ea c8 	bic.b	@r8,	-14102(r10);0xc8ea(r10)
    cce2:	ea c8 d9 c8 	bic.b	@r8,	-14119(r10);0xc8d9(r10)
    cce6:	f9 c8 f9 c8 	bic.b	@r8+,	-14087(r9);0xc8f9(r9)
    ccea:	f9 c8 06 c9 	bic.b	@r8+,	-14074(r9);0xc906(r9)
    ccee:	06 c9       	bic	r9,	r6	
    ccf0:	06 c9       	bic	r9,	r6	
    ccf2:	06 c9       	bic	r9,	r6	
    ccf4:	f9 c8 f9 c8 	bic.b	@r8+,	-14087(r9);0xc8f9(r9)
    ccf8:	f9 c8 f9 c8 	bic.b	@r8+,	-14087(r9);0xc8f9(r9)
    ccfc:	06 c9       	bic	r9,	r6	
    ccfe:	06 c9       	bic	r9,	r6	
    cd00:	06 c9       	bic	r9,	r6	
    cd02:	06 c9       	bic	r9,	r6	
    cd04:	f9 c8 f9 c8 	bic.b	@r8+,	-14087(r9);0xc8f9(r9)
    cd08:	f9 c8 f9 c8 	bic.b	@r8+,	-14087(r9);0xc8f9(r9)

0000cd0c <colorPatterns>:
    cd0c:	ad 40 05 00 	mov	@r0,	5(r13)	;0x0005(r13)

0000cd0f <P2OUT_Patterns>:
    cd0f:	00 e1       	xor	r1,	r0	
    cd11:	88 c0 71 44 	bic	r0,	17521(r8);0x4471(r8)
    cd15:	04 e0       	xor	r0,	r4	
    cd17:	00 60       	rlc	r0		
    cd19:	20 05       	.word	0x0520;	????	
    cd1b:	0c 81       	sub	r1,	r12	
    cd1d:	0c 2c       	jc	$+26     	;abs 0xcd37

0000cd1f <P1OUT_Patterns>:
    cd1f:	41 41       	mov.b	r1,	r1	
    cd21:	40 40       	br	r0		
    cd23:	40 40       	br	r0		
    cd25:	40 41       	br	r1		
    cd27:	40 40       	br	r0		
    cd29:	40 40       	br	r0		
    cd2b:	41 40       	mov.b	r0,	r1	
    cd2d:	40 40       	br	r0		
    cd2f:	25 73       	subc	#2,	r5	;r3 As==10
    cd31:	0a 0d       	.word	0x0d0a;	????	
	...

0000cd34 <_dv>:
    cd34:	00 ca       	bic	r10,	r0	
    cd36:	9a 3b       	jl	$-202    	;abs 0xcc6c
    cd38:	00 e1       	xor	r1,	r0	
    cd3a:	f5 05       	.word	0x05f5;	????	
    cd3c:	80 96 98 00 	cmp	r6,	152(r0)	;PC rel. 0xcdd6
    cd40:	40 42       	br	r2		
    cd42:	0f 00       	.word	0x000f;	????	
    cd44:	a0 86 01 00 	sub	@r6,	1(r0)	;PC rel. 0xcd47
    cd48:	10 27       	jz	$-478    	;abs 0xcb6a
    cd4a:	00 00       	.word	0x0000;	????	
    cd4c:	e8 03       	.word	0x03e8;	????	
    cd4e:	00 00       	.word	0x0000;	????	
    cd50:	64 00       	.word	0x0064;	????	
    cd52:	00 00       	.word	0x0000;	????	
    cd54:	0a 00       	.word	0x000a;	????	
    cd56:	00 00       	.word	0x0000;	????	
    cd58:	01 00       	.word	0x0001;	????	
	...

0000cd5c <hex.1308>:
    cd5c:	30 31       	jn	$+610    	;abs 0xcfbe
    cd5e:	32 33       	jn	$-410    	;abs 0xcbc4
    cd60:	34 35       	jge	$+618    	;abs 0xcfca
    cd62:	36 37       	jge	$-402    	;abs 0xcbd0
    cd64:	38 39       	jl	$+626    	;abs 0xcfd6
    cd66:	41 42       	mov.b	r2,	r1	
    cd68:	43 44       	.word	0x4443;	????	Illegal as 2-op instr
    cd6a:	45 46       	mov.b	r6,	r5	

Disassembly of section .data:

00000200 <ADC10_value>:
 200:	74 01       	.word	0x0174;	????	

Disassembly of section .bss:

00000202 <__bss_start>:
	...

00000204 <cursor>:
	...

00000206 <hexValue>:
	...

00000208 <printCounter>:
	...

Disassembly of section .noinit:

0000020a <__wdt_clear_value>:
	...

Disassembly of section .vectors:

0000ffe0 <__ivtbl_16>:
    ffe0:	3a c1       	bic	@r1+,	r10	
    ffe2:	3a c1       	bic	@r1+,	r10	
    ffe4:	44 c3       	bic.b	#0,	r4	;r3 As==00
    ffe6:	3a c1       	bic	@r1+,	r10	
    ffe8:	3a c1       	bic	@r1+,	r10	
    ffea:	3a c1       	bic	@r1+,	r10	
    ffec:	3a c1       	bic	@r1+,	r10	
    ffee:	3a c1       	bic	@r1+,	r10	
    fff0:	3a c1       	bic	@r1+,	r10	
    fff2:	3e c1       	bic	@r1+,	r14	
    fff4:	3a c1       	bic	@r1+,	r10	
    fff6:	3a c1       	bic	@r1+,	r10	
    fff8:	3a c1       	bic	@r1+,	r10	
    fffa:	6e c2       	bic.b	#4,	r14	;r2 As==10
    fffc:	3a c1       	bic	@r1+,	r10	
    fffe:	00 c0       	bic	r0,	r0	

Disassembly of section .debug_aranges:

00000000 <.debug_aranges>:
   0:	14 00       	.word	0x0014;	????	
   2:	00 00       	.word	0x0000;	????	
   4:	02 00       	.word	0x0002;	????	
   6:	00 00       	.word	0x0000;	????	
   8:	00 00       	.word	0x0000;	????	
   a:	02 00       	.word	0x0002;	????	
   c:	3e c1       	bic	@r1+,	r14	
   e:	9e 02       	.word	0x029e;	????	
  10:	3e c0 f6 00 	bic	#246,	r14	;#0x00f6
  14:	00 00       	.word	0x0000;	????	
  16:	00 00       	.word	0x0000;	????	
  18:	10 00       	.word	0x0010;	????	
  1a:	00 00       	.word	0x0000;	????	
  1c:	02 00       	.word	0x0002;	????	
  1e:	cb 03       	.word	0x03cb;	????	
  20:	00 00       	.word	0x0000;	????	
  22:	02 00       	.word	0x0002;	????	
  24:	dc c3 9e 00 	bic.b	#1,	158(r12);r3 As==01, 0x009e(r12)
  28:	00 00       	.word	0x0000;	????	
  2a:	00 00       	.word	0x0000;	????	
  2c:	10 00       	.word	0x0010;	????	
  2e:	00 00       	.word	0x0000;	????	
  30:	02 00       	.word	0x0002;	????	
  32:	a8 04       	.word	0x04a8;	????	
  34:	00 00       	.word	0x0000;	????	
  36:	02 00       	.word	0x0002;	????	
  38:	7a c4       	bic.b	@r4+,	r10	
  3a:	6a 02       	.word	0x026a;	????	
  3c:	00 00       	.word	0x0000;	????	
  3e:	00 00       	.word	0x0000;	????	
  40:	10 00       	.word	0x0010;	????	
  42:	00 00       	.word	0x0000;	????	
  44:	02 00       	.word	0x0002;	????	
  46:	fc 06       	.word	0x06fc;	????	
  48:	00 00       	.word	0x0000;	????	
  4a:	02 00       	.word	0x0002;	????	
  4c:	e4 c6 0c 00 	bic.b	@r6,	12(r4)	;0x000c(r4)
  50:	00 00       	.word	0x0000;	????	
  52:	00 00       	.word	0x0000;	????	
  54:	10 00       	.word	0x0010;	????	
  56:	00 00       	.word	0x0000;	????	
  58:	02 00       	.word	0x0002;	????	
  5a:	5a 07       	.word	0x075a;	????	
  5c:	00 00       	.word	0x0000;	????	
  5e:	02 00       	.word	0x0002;	????	
  60:	f0 c6 62 01 	bic.b	@r6+,	354(r0)	;PC rel. 0x01c4
  64:	00 00       	.word	0x0000;	????	
  66:	00 00       	.word	0x0000;	????	
  68:	10 00       	.word	0x0010;	????	
  6a:	00 00       	.word	0x0000;	????	
  6c:	02 00       	.word	0x0002;	????	
  6e:	21 09       	.word	0x0921;	????	
  70:	00 00       	.word	0x0000;	????	
  72:	02 00       	.word	0x0002;	????	
  74:	52 c8 3a 00 	bic.b	58(r8),	r2	;0x003a(r8)
  78:	00 00       	.word	0x0000;	????	
  7a:	00 00       	.word	0x0000;	????	
  7c:	10 00       	.word	0x0010;	????	
  7e:	00 00       	.word	0x0000;	????	
  80:	02 00       	.word	0x0002;	????	
  82:	05 0a       	.word	0x0a05;	????	
  84:	00 00       	.word	0x0000;	????	
  86:	02 00       	.word	0x0002;	????	
  88:	8c c8 22 00 	bic	r8,	34(r12)	;0x0022(r12)
  8c:	00 00       	.word	0x0000;	????	
  8e:	00 00       	.word	0x0000;	????	
  90:	10 00       	.word	0x0010;	????	
  92:	00 00       	.word	0x0000;	????	
  94:	02 00       	.word	0x0002;	????	
  96:	e9 0a       	.word	0x0ae9;	????	
  98:	00 00       	.word	0x0000;	????	
  9a:	02 00       	.word	0x0002;	????	
  9c:	00 c0       	bic	r0,	r0	
  9e:	0c 00       	.word	0x000c;	????	
  a0:	00 00       	.word	0x0000;	????	
  a2:	00 00       	.word	0x0000;	????	
  a4:	10 00       	.word	0x0010;	????	
  a6:	00 00       	.word	0x0000;	????	
  a8:	02 00       	.word	0x0002;	????	
  aa:	b7 0b       	.word	0x0bb7;	????	
  ac:	00 00       	.word	0x0000;	????	
  ae:	02 00       	.word	0x0002;	????	
  b0:	0c c0       	bic	r0,	r12	
  b2:	04 00       	.word	0x0004;	????	
  b4:	00 00       	.word	0x0000;	????	
  b6:	00 00       	.word	0x0000;	????	
  b8:	10 00       	.word	0x0010;	????	
  ba:	00 00       	.word	0x0000;	????	
  bc:	02 00       	.word	0x0002;	????	
  be:	85 0c       	.word	0x0c85;	????	
  c0:	00 00       	.word	0x0000;	????	
  c2:	02 00       	.word	0x0002;	????	
  c4:	10 c0 18 00 	bic	24(r0),	r0	;PC rel. 0x00de
  c8:	00 00       	.word	0x0000;	????	
  ca:	00 00       	.word	0x0000;	????	
  cc:	10 00       	.word	0x0010;	????	
  ce:	00 00       	.word	0x0000;	????	
  d0:	02 00       	.word	0x0002;	????	
  d2:	53 0d       	.word	0x0d53;	????	
  d4:	00 00       	.word	0x0000;	????	
  d6:	02 00       	.word	0x0002;	????	
  d8:	28 c0       	bic	@r0,	r8	
  da:	16 00       	.word	0x0016;	????	
  dc:	00 00       	.word	0x0000;	????	
  de:	00 00       	.word	0x0000;	????	
  e0:	10 00       	.word	0x0010;	????	
  e2:	00 00       	.word	0x0000;	????	
  e4:	02 00       	.word	0x0002;	????	
  e6:	21 0e       	.word	0x0e21;	????	
  e8:	00 00       	.word	0x0000;	????	
  ea:	02 00       	.word	0x0002;	????	
  ec:	34 c1       	bic	@r1+,	r4	
  ee:	06 00       	.word	0x0006;	????	
  f0:	00 00       	.word	0x0000;	????	
  f2:	00 00       	.word	0x0000;	????	
  f4:	10 00       	.word	0x0010;	????	
  f6:	00 00       	.word	0x0000;	????	
  f8:	02 00       	.word	0x0002;	????	
  fa:	ef 0e       	.word	0x0eef;	????	
  fc:	00 00       	.word	0x0000;	????	
  fe:	02 00       	.word	0x0002;	????	
 100:	ae c8 02 00 	bic	@r8,	2(r14)	;0x0002(r14)
 104:	00 00       	.word	0x0000;	????	
	...

Disassembly of section .debug_info:

00000000 <.debug_info>:
   0:	c7 03       	.word	0x03c7;	????	
   2:	00 00       	.word	0x0000;	????	
   4:	02 00       	.word	0x0002;	????	
   6:	00 00       	.word	0x0000;	????	
   8:	00 00       	.word	0x0000;	????	
   a:	02 01       	.word	0x0102;	????	
   c:	56 01       	.word	0x0156;	????	
   e:	00 00       	.word	0x0000;	????	
  10:	01 08       	.word	0x0801;	????	
  12:	01 00       	.word	0x0001;	????	
  14:	00 c9       	bic	r9,	r0	
	...
  22:	00 00       	.word	0x0000;	????	
  24:	00 02       	.word	0x0200;	????	
  26:	02 07       	.word	0x0702;	????	
  28:	c2 03       	.word	0x03c2;	????	
  2a:	00 00       	.word	0x0000;	????	
  2c:	03 01       	.word	0x0103;	????	
  2e:	0d 01       	.word	0x010d;	????	
  30:	00 00       	.word	0x0000;	????	
  32:	01 33       	jn	$-508    	;abs 0xfe36
  34:	01 40       	mov	r0,	r1	
  36:	00 00       	.word	0x0000;	????	
  38:	00 3e       	jmp	$-1022   	;abs 0xfc3a
  3a:	c0 34       	jge	$+386    	;abs 0x1bc
  3c:	c1 02       	.word	0x02c1;	????	
  3e:	71 00       	.word	0x0071;	????	
  40:	04 02       	.word	0x0204;	????	
  42:	05 69       	addc	r9,	r5	
  44:	6e 74       	subc.b	@r4,	r14	
  46:	00 05       	.word	0x0500;	????	
  48:	01 14       	.word	0x1401;	????	
  4a:	00 00       	.word	0x0000;	????	
  4c:	00 01       	.word	0x0100;	????	
  4e:	7d 01       	.word	0x017d;	????	
  50:	3e c1       	bic	@r1+,	r14	
  52:	6e c2       	bic.b	#4,	r14	;r2 As==10
  54:	00 00       	.word	0x0000;	????	
  56:	00 00       	.word	0x0000;	????	
  58:	06 01       	.word	0x0106;	????	
  5a:	1b 00       	.word	0x001b;	????	
  5c:	00 00       	.word	0x0000;	????	
  5e:	01 9f       	cmp	r15,	r1	
  60:	01 6e       	addc	r14,	r1	
  62:	c2 44 c3 2c 	mov.b	r4,	&0x2cc3	
  66:	00 00       	.word	0x0000;	????	
  68:	00 ac       	dadd	r12,	r0	
  6a:	00 00       	.word	0x0000;	????	
  6c:	00 07       	.word	0x0700;	????	
  6e:	8e c2 36 c3 	bic	r2,	-15562(r14);0xc336(r14)
  72:	08 72       	subc	r2,	r8	
  74:	65 64       	addc.b	@r4,	r5	
  76:	00 01       	.word	0x0100;	????	
  78:	a5 ac 00 00 	dadd	@r12,	0(r5)	;0x0000(r5)
  7c:	00 02       	.word	0x0200;	????	
  7e:	91 70 09 a6 	subc	-23031(r0),0(r1)	;PC rel. 0xa689, 0x0000(r1)
  82:	00 00 
  84:	00 01       	.word	0x0100;	????	
  86:	a6 ac 00 00 	dadd	@r12,	0(r6)	;0x0000(r6)
  8a:	00 02       	.word	0x0200;	????	
  8c:	91 71 09 39 	subc	14601(r1),0(r1)	;0x3909(r1), 0x0000(r1)
  90:	00 00 
  92:	00 01       	.word	0x0100;	????	
  94:	a7 ac 00 00 	dadd	@r12,	0(r7)	;0x0000(r7)
  98:	00 02       	.word	0x0200;	????	
  9a:	91 72 09 8b 	subc	&0x8b09,1(r1)	;0x0001(r1)
  9e:	01 00 
  a0:	00 01       	.word	0x0100;	????	
  a2:	aa 40 00 00 	mov	@r0,	0(r10)	;0x0000(r10)
  a6:	00 02       	.word	0x0200;	????	
  a8:	91 74 00 00 	subc	0(r4),	258(r1)	;0x0000(r4), 0x0102(r1)
  ac:	02 01 
  ae:	08 71       	subc	r1,	r8	
  b0:	00 00       	.word	0x0000;	????	
  b2:	00 05       	.word	0x0500;	????	
  b4:	01 c9       	bic	r9,	r1	
  b6:	01 00       	.word	0x0001;	????	
  b8:	00 01       	.word	0x0100;	????	
  ba:	b4 01       	.word	0x01b4;	????	
  bc:	44 c3       	bic.b	#0,	r4	;r3 As==00
  be:	dc c3 78 00 	bic.b	#1,	120(r12);r3 As==01, 0x0078(r12)
  c2:	00 00       	.word	0x0000;	????	
  c4:	0a 4f       	mov	r15,	r10	
  c6:	01 00       	.word	0x0001;	????	
  c8:	00 02       	.word	0x0200;	????	
  ca:	22 01       	.word	0x0122;	????	
  cc:	4d 01       	.word	0x014d;	????	
  ce:	00 00       	.word	0x0000;	????	
  d0:	d6 00       	.word	0x00d6;	????	
  d2:	00 00       	.word	0x0000;	????	
  d4:	01 01       	.word	0x0101;	????	
  d6:	0b ac       	dadd	r12,	r11	
  d8:	00 00       	.word	0x0000;	????	
  da:	00 0a       	.word	0x0a00;	????	
  dc:	9e 01       	.word	0x019e;	????	
  de:	00 00       	.word	0x0000;	????	
  e0:	02 24       	jz	$+6      	;abs 0xe6
  e2:	01 9c       	cmp	r12,	r1	
  e4:	01 00       	.word	0x0001;	????	
  e6:	00 d6       	bis	r6,	r0	
  e8:	00 00       	.word	0x0000;	????	
  ea:	00 01       	.word	0x0100;	????	
  ec:	01 0a       	.word	0x0a01;	????	
  ee:	c4 00       	.word	0x00c4;	????	
  f0:	00 00       	.word	0x0000;	????	
  f2:	02 d6       	bis	r6,	r2	
  f4:	01 c2       	bic	r2,	r1	
  f6:	00 00       	.word	0x0000;	????	
  f8:	00 ff       	and	r15,	r0	
  fa:	00 00       	.word	0x0000;	????	
  fc:	00 01       	.word	0x0100;	????	
  fe:	01 0c       	.word	0x0c01;	????	
 100:	d6 00       	.word	0x00d6;	????	
 102:	00 00       	.word	0x0000;	????	
 104:	0a 8e       	sub	r14,	r10	
 106:	00 00       	.word	0x0000;	????	
 108:	00 02       	.word	0x0200;	????	
 10a:	d8 01       	.word	0x01d8;	????	
 10c:	8c 00       	.word	0x008c;	????	
 10e:	00 00       	.word	0x0000;	????	
 110:	d6 00       	.word	0x00d6;	????	
 112:	00 00       	.word	0x0000;	????	
 114:	01 01       	.word	0x0101;	????	
 116:	0a 33       	jn	$-490    	;abs 0xff2c
 118:	00 00       	.word	0x0000;	????	
 11a:	00 02       	.word	0x0200;	????	
 11c:	da 01       	.word	0x01da;	????	
 11e:	31 00       	.word	0x0031;	????	
 120:	00 00       	.word	0x0000;	????	
 122:	d6 00       	.word	0x00d6;	????	
 124:	00 00       	.word	0x0000;	????	
 126:	01 01       	.word	0x0101;	????	
 128:	0a 5c       	add	r12,	r10	
 12a:	00 00       	.word	0x0000;	????	
 12c:	00 02       	.word	0x0200;	????	
 12e:	dc 01       	.word	0x01dc;	????	
 130:	5a 00       	.word	0x005a;	????	
 132:	00 00       	.word	0x0000;	????	
 134:	d6 00       	.word	0x00d6;	????	
 136:	00 00       	.word	0x0000;	????	
 138:	01 01       	.word	0x0101;	????	
 13a:	0a b2       	bit	r2,	r10	
 13c:	01 00       	.word	0x0001;	????	
 13e:	00 02       	.word	0x0200;	????	
 140:	de 01       	.word	0x01de;	????	
 142:	b0 01       	.word	0x01b0;	????	
 144:	00 00       	.word	0x0000;	????	
 146:	d6 00       	.word	0x00d6;	????	
 148:	00 00       	.word	0x0000;	????	
 14a:	01 01       	.word	0x0101;	????	
 14c:	0a 87       	sub	r7,	r10	
 14e:	00 00       	.word	0x0000;	????	
 150:	00 02       	.word	0x0200;	????	
 152:	e0 01       	.word	0x01e0;	????	
 154:	85 00       	.word	0x0085;	????	
 156:	00 00       	.word	0x0000;	????	
 158:	d6 00       	.word	0x00d6;	????	
 15a:	00 00       	.word	0x0000;	????	
 15c:	01 01       	.word	0x0101;	????	
 15e:	0a 49       	mov	r9,	r10	
 160:	00 00       	.word	0x0000;	????	
 162:	00 02       	.word	0x0200;	????	
 164:	e2 01       	.word	0x01e2;	????	
 166:	47 00       	.word	0x0047;	????	
 168:	00 00       	.word	0x0000;	????	
 16a:	d6 00       	.word	0x00d6;	????	
 16c:	00 00       	.word	0x0000;	????	
 16e:	01 01       	.word	0x0101;	????	
 170:	0a 40       	mov	r0,	r10	
 172:	00 00       	.word	0x0000;	????	
 174:	00 02       	.word	0x0200;	????	
 176:	e4 01       	.word	0x01e4;	????	
 178:	3e 00       	.word	0x003e;	????	
 17a:	00 00       	.word	0x0000;	????	
 17c:	d6 00       	.word	0x00d6;	????	
 17e:	00 00       	.word	0x0000;	????	
 180:	01 01       	.word	0x0101;	????	
 182:	0a 47       	mov	r7,	r10	
 184:	01 00       	.word	0x0001;	????	
 186:	00 02       	.word	0x0200;	????	
 188:	eb 01       	.word	0x01eb;	????	
 18a:	45 01       	.word	0x0145;	????	
 18c:	00 00       	.word	0x0000;	????	
 18e:	d6 00       	.word	0x00d6;	????	
 190:	00 00       	.word	0x0000;	????	
 192:	01 01       	.word	0x0101;	????	
 194:	0a 36       	jge	$-1002   	;abs 0xfdaa
 196:	01 00       	.word	0x0001;	????	
 198:	00 02       	.word	0x0200;	????	
 19a:	ed 01       	.word	0x01ed;	????	
 19c:	34 01       	.word	0x0134;	????	
 19e:	00 00       	.word	0x0000;	????	
 1a0:	d6 00       	.word	0x00d6;	????	
 1a2:	00 00       	.word	0x0000;	????	
 1a4:	01 01       	.word	0x0101;	????	
 1a6:	0a eb       	xor	r11,	r10	
 1a8:	00 00       	.word	0x0000;	????	
 1aa:	00 02       	.word	0x0200;	????	
 1ac:	f5 01       	.word	0x01f5;	????	
 1ae:	e9 00       	.word	0x00e9;	????	
 1b0:	00 00       	.word	0x0000;	????	
 1b2:	d6 00       	.word	0x00d6;	????	
 1b4:	00 00       	.word	0x0000;	????	
 1b6:	01 01       	.word	0x0101;	????	
 1b8:	0a 01       	.word	0x010a;	????	
 1ba:	01 00       	.word	0x0001;	????	
 1bc:	00 02       	.word	0x0200;	????	
 1be:	f7 01       	.word	0x01f7;	????	
 1c0:	ff 00       	.word	0x00ff;	????	
 1c2:	00 00       	.word	0x0000;	????	
 1c4:	d6 00       	.word	0x00d6;	????	
 1c6:	00 00       	.word	0x0000;	????	
 1c8:	01 01       	.word	0x0101;	????	
 1ca:	0a 9f       	cmp	r15,	r10	
 1cc:	00 00       	.word	0x0000;	????	
 1ce:	00 02       	.word	0x0200;	????	
 1d0:	15 02       	.word	0x0215;	????	
 1d2:	9d 00       	.word	0x009d;	????	
 1d4:	00 00       	.word	0x0000;	????	
 1d6:	dc 01       	.word	0x01dc;	????	
 1d8:	00 00       	.word	0x0000;	????	
 1da:	01 01       	.word	0x0101;	????	
 1dc:	0b 25       	jz	$+536    	;abs 0x3f4
 1de:	00 00       	.word	0x0000;	????	
 1e0:	00 0a       	.word	0x0a00;	????	
 1e2:	ae 00       	.word	0x00ae;	????	
 1e4:	00 00       	.word	0x0000;	????	
 1e6:	02 17       	.word	0x1702;	????	
 1e8:	02 ac       	dadd	r12,	r2	
 1ea:	00 00       	.word	0x0000;	????	
 1ec:	00 dc       	bis	r12,	r0	
 1ee:	01 00       	.word	0x0001;	????	
 1f0:	00 01       	.word	0x0100;	????	
 1f2:	01 0a       	.word	0x0a01;	????	
 1f4:	b9 00       	.word	0x00b9;	????	
 1f6:	00 00       	.word	0x0000;	????	
 1f8:	02 19       	.word	0x1902;	????	
 1fa:	02 b7       	bit	r7,	r2	
 1fc:	00 00       	.word	0x0000;	????	
 1fe:	00 dc       	bis	r12,	r0	
 200:	01 00       	.word	0x0001;	????	
 202:	00 01       	.word	0x0100;	????	
 204:	01 0a       	.word	0x0a01;	????	
 206:	14 01       	.word	0x0114;	????	
 208:	00 00       	.word	0x0000;	????	
 20a:	02 1f       	.word	0x1f02;	????	
 20c:	02 12       	push	r2		
 20e:	01 00       	.word	0x0001;	????	
 210:	00 dc       	bis	r12,	r0	
 212:	01 00       	.word	0x0001;	????	
 214:	00 01       	.word	0x0100;	????	
 216:	01 0a       	.word	0x0a01;	????	
 218:	1e 01       	.word	0x011e;	????	
 21a:	00 00       	.word	0x0000;	????	
 21c:	02 21       	jnz	$+518    	;abs 0x422
 21e:	02 1c       	.word	0x1c02;	????	
 220:	01 00       	.word	0x0001;	????	
 222:	00 dc       	bis	r12,	r0	
 224:	01 00       	.word	0x0001;	????	
 226:	00 01       	.word	0x0100;	????	
 228:	01 0a       	.word	0x0a01;	????	
 22a:	d2 01       	.word	0x01d2;	????	
 22c:	00 00       	.word	0x0000;	????	
 22e:	02 8f       	sub	r15,	r2	
 230:	02 d0       	bis	r0,	r2	
 232:	01 00       	.word	0x0001;	????	
 234:	00 dc       	bis	r12,	r0	
 236:	01 00       	.word	0x0001;	????	
 238:	00 01       	.word	0x0100;	????	
 23a:	01 0a       	.word	0x0a01;	????	
 23c:	f3 01       	.word	0x01f3;	????	
 23e:	00 00       	.word	0x0000;	????	
 240:	02 91       	cmp	r1,	r2	
 242:	02 f1       	and	r1,	r2	
 244:	01 00       	.word	0x0001;	????	
 246:	00 dc       	bis	r12,	r0	
 248:	01 00       	.word	0x0001;	????	
 24a:	00 01       	.word	0x0100;	????	
 24c:	01 0a       	.word	0x0a01;	????	
 24e:	51 00       	.word	0x0051;	????	
 250:	00 00       	.word	0x0000;	????	
 252:	02 93       	tst	r2		
 254:	02 4f       	mov	r15,	r2	
 256:	00 00       	.word	0x0000;	????	
 258:	00 dc       	bis	r12,	r0	
 25a:	01 00       	.word	0x0001;	????	
 25c:	00 01       	.word	0x0100;	????	
 25e:	01 0a       	.word	0x0a01;	????	
 260:	93 01       	.word	0x0193;	????	
 262:	00 00       	.word	0x0000;	????	
 264:	02 95       	cmp	r5,	r2	
 266:	02 91       	cmp	r1,	r2	
 268:	01 00       	.word	0x0001;	????	
 26a:	00 dc       	bis	r12,	r0	
 26c:	01 00       	.word	0x0001;	????	
 26e:	00 01       	.word	0x0100;	????	
 270:	01 0a       	.word	0x0a01;	????	
 272:	a8 01       	.word	0x01a8;	????	
 274:	00 00       	.word	0x0000;	????	
 276:	02 99       	cmp	r9,	r2	
 278:	02 a6       	dadd	r6,	r2	
 27a:	01 00       	.word	0x0001;	????	
 27c:	00 dc       	bis	r12,	r0	
 27e:	01 00       	.word	0x0001;	????	
 280:	00 01       	.word	0x0100;	????	
 282:	01 0a       	.word	0x0a01;	????	
 284:	db 01       	.word	0x01db;	????	
 286:	00 00       	.word	0x0000;	????	
 288:	02 9b       	cmp	r11,	r2	
 28a:	02 d9       	bis	r9,	r2	
 28c:	01 00       	.word	0x0001;	????	
 28e:	00 dc       	bis	r12,	r0	
 290:	01 00       	.word	0x0001;	????	
 292:	00 01       	.word	0x0100;	????	
 294:	01 0a       	.word	0x0a01;	????	
 296:	ba 01       	.word	0x01ba;	????	
 298:	00 00       	.word	0x0000;	????	
 29a:	02 9d       	cmp	r13,	r2	
 29c:	02 b8       	bit	r8,	r2	
 29e:	01 00       	.word	0x0001;	????	
 2a0:	00 dc       	bis	r12,	r0	
 2a2:	01 00       	.word	0x0001;	????	
 2a4:	00 01       	.word	0x0100;	????	
 2a6:	01 0a       	.word	0x0a01;	????	
 2a8:	3e 01       	.word	0x013e;	????	
 2aa:	00 00       	.word	0x0000;	????	
 2ac:	02 86       	sub	r6,	r2	
 2ae:	03 3c       	jmp	$+8      	;abs 0x2b6
 2b0:	01 00       	.word	0x0001;	????	
 2b2:	00 dc       	bis	r12,	r0	
 2b4:	01 00       	.word	0x0001;	????	
 2b6:	00 01       	.word	0x0100;	????	
 2b8:	01 0a       	.word	0x0a01;	????	
 2ba:	e5 01       	.word	0x01e5;	????	
 2bc:	00 00       	.word	0x0000;	????	
 2be:	02 c2       	bic	r2,	r2	
 2c0:	03 e3       	.word	0xe303;	????	Illegal as 2-op instr
 2c2:	01 00       	.word	0x0001;	????	
 2c4:	00 ff       	and	r15,	r0	
 2c6:	00 00       	.word	0x0000;	????	
 2c8:	00 01       	.word	0x0100;	????	
 2ca:	01 0a       	.word	0x0a01;	????	
 2cc:	f3 00       	.word	0x00f3;	????	
 2ce:	00 00       	.word	0x0000;	????	
 2d0:	02 c4       	bic	r4,	r2	
 2d2:	03 f1       	.word	0xf103;	????	Illegal as 2-op instr
 2d4:	00 00       	.word	0x0000;	????	
 2d6:	00 ff       	and	r15,	r0	
 2d8:	00 00       	.word	0x0000;	????	
 2da:	00 01       	.word	0x0100;	????	
 2dc:	01 0d       	.word	0x0d01;	????	
 2de:	ee 02       	.word	0x02ee;	????	
 2e0:	00 00       	.word	0x0000;	????	
 2e2:	ee 02       	.word	0x02ee;	????	
 2e4:	00 00       	.word	0x0000;	????	
 2e6:	0e 25       	jz	$+542    	;abs 0x504
 2e8:	00 00       	.word	0x0000;	????	
 2ea:	00 ff       	and	r15,	r0	
 2ec:	01 00       	.word	0x0001;	????	
 2ee:	0f 02       	.word	0x020f;	????	
 2f0:	f4 02       	.word	0x02f4;	????	
 2f2:	00 00       	.word	0x0000;	????	
 2f4:	0c f9       	and	r9,	r12	
 2f6:	02 00       	.word	0x0002;	????	
 2f8:	00 02       	.word	0x0200;	????	
 2fa:	01 06       	.word	0x0601;	????	
 2fc:	7a 00       	.word	0x007a;	????	
 2fe:	00 00       	.word	0x0000;	????	
 300:	10 0d       	.word	0x0d10;	????	
 302:	00 00       	.word	0x0000;	????	
 304:	00 03       	.word	0x0300;	????	
 306:	01 10       	rrc	r1		
 308:	03 00       	.word	0x0003;	????	
 30a:	00 01       	.word	0x0100;	????	
 30c:	03 03       	.word	0x0303;	????	
 30e:	0c c9       	bic	r9,	r12	
 310:	0c dd       	bis	r13,	r12	
 312:	02 00       	.word	0x0002;	????	
 314:	00 0d       	.word	0x0d00;	????	
 316:	f9 02       	.word	0x02f9;	????	
 318:	00 00       	.word	0x0000;	????	
 31a:	25 03       	.word	0x0325;	????	
 31c:	00 00       	.word	0x0000;	????	
 31e:	11 25       	jz	$+548    	;abs 0x542
 320:	00 00       	.word	0x0000;	????	
 322:	00 02       	.word	0x0200;	????	
 324:	00 10       	rrc	r0		
 326:	26 01       	.word	0x0126;	????	
 328:	00 00       	.word	0x0000;	????	
 32a:	01 14       	.word	0x1401;	????	
 32c:	35 03       	.word	0x0335;	????	
 32e:	00 00       	.word	0x0000;	????	
 330:	01 03       	.word	0x0301;	????	
 332:	03 0c       	.word	0x0c03;	????	
 334:	cd 0c       	.word	0x0ccd;	????	
 336:	15 03       	.word	0x0315;	????	
 338:	00 00       	.word	0x0000;	????	
 33a:	0d f9       	and	r9,	r13	
 33c:	02 00       	.word	0x0002;	????	
 33e:	00 4a       	br	r10		
 340:	03 00       	.word	0x0003;	????	
 342:	00 11       	rra	r0		
 344:	25 00       	.word	0x0025;	????	
 346:	00 00       	.word	0x0000;	????	
 348:	0f 00       	.word	0x000f;	????	
 34a:	10 62 00 00 	addc	&0x0000,r0	
 34e:	00 01       	.word	0x0100;	????	
 350:	18 5a 03 00 	add	3(r10),	r8	;0x0003(r10)
 354:	00 01       	.word	0x0100;	????	
 356:	03 03       	.word	0x0303;	????	
 358:	0f cd       	bic	r13,	r15	
 35a:	0c 3a       	jl	$-998    	;abs 0xff74
 35c:	03 00       	.word	0x0003;	????	
 35e:	00 10       	rrc	r0		
 360:	22 00       	.word	0x0022;	????	
 362:	00 00       	.word	0x0000;	????	
 364:	01 1e       	.word	0x1e01;	????	
 366:	6f 03       	.word	0x036f;	????	
 368:	00 00       	.word	0x0000;	????	
 36a:	01 03       	.word	0x0301;	????	
 36c:	03 1f       	.word	0x1f03;	????	
 36e:	cd 0c       	.word	0x0ccd;	????	
 370:	3a 03       	.word	0x033a;	????	
 372:	00 00       	.word	0x0000;	????	
 374:	10 7f 00 00 	subc	0(r15),	r0	;0x0000(r15)
 378:	00 01       	.word	0x0100;	????	
 37a:	28 40       	mov	@r0,	r8	
 37c:	00 00       	.word	0x0000;	????	
 37e:	00 01       	.word	0x0100;	????	
 380:	03 03       	.word	0x0303;	????	
 382:	02 02       	.word	0x0202;	????	
 384:	10 c2 01 00 	bic	&0x0001,r0	
 388:	00 01       	.word	0x0100;	????	
 38a:	29 f9       	and	@r9,	r9	
 38c:	02 00       	.word	0x0002;	????	
 38e:	00 01       	.word	0x0100;	????	
 390:	03 03       	.word	0x0303;	????	
 392:	04 02       	.word	0x0204;	????	
 394:	10 dd 00 00 	bis	0(r13),	r0	;0x0000(r13)
 398:	00 01       	.word	0x0100;	????	
 39a:	2a a4       	dadd	@r4,	r10	
 39c:	03 00       	.word	0x0003;	????	
 39e:	00 01       	.word	0x0100;	????	
 3a0:	03 03       	.word	0x0303;	????	
 3a2:	00 02       	.word	0x0200;	????	
 3a4:	0f 02       	.word	0x020f;	????	
 3a6:	dc 01       	.word	0x01dc;	????	
 3a8:	00 00       	.word	0x0000;	????	
 3aa:	10 94 00 00 	cmp	0(r4),	r0	;0x0000(r4)
 3ae:	00 01       	.word	0x0100;	????	
 3b0:	2b ac       	dadd	@r12,	r11	
 3b2:	00 00       	.word	0x0000;	????	
 3b4:	00 01       	.word	0x0100;	????	
 3b6:	03 03       	.word	0x0303;	????	
 3b8:	06 02       	.word	0x0206;	????	
 3ba:	10 00       	.word	0x0010;	????	
 3bc:	00 00       	.word	0x0000;	????	
 3be:	00 01       	.word	0x0100;	????	
 3c0:	2c 40       	mov	@r0,	r12	
 3c2:	00 00       	.word	0x0000;	????	
 3c4:	00 01       	.word	0x0100;	????	
 3c6:	03 03       	.word	0x0303;	????	
 3c8:	08 02       	.word	0x0208;	????	
 3ca:	00 d9       	bis	r9,	r0	
 3cc:	00 00       	.word	0x0000;	????	
 3ce:	00 02       	.word	0x0200;	????	
 3d0:	00 ed       	xor	r13,	r0	
 3d2:	00 00       	.word	0x0000;	????	
 3d4:	00 02       	.word	0x0200;	????	
 3d6:	01 56       	add	r6,	r1	
 3d8:	01 00       	.word	0x0001;	????	
 3da:	00 01       	.word	0x0100;	????	
 3dc:	3b 02       	.word	0x023b;	????	
 3de:	00 00       	.word	0x0000;	????	
 3e0:	c9 00       	.word	0x00c9;	????	
 3e2:	00 00       	.word	0x0000;	????	
 3e4:	dc c3 7a c4 	bic.b	#1,	-15238(r12);r3 As==01, 0xc47a(r12)
 3e8:	f5 00       	.word	0x00f5;	????	
 3ea:	00 00       	.word	0x0000;	????	
 3ec:	02 02       	.word	0x0202;	????	
 3ee:	07 c2       	bic	r2,	r7	
 3f0:	03 00       	.word	0x0003;	????	
 3f2:	00 03       	.word	0x0300;	????	
 3f4:	01 4b       	mov	r11,	r1	
 3f6:	02 00       	.word	0x0002;	????	
 3f8:	00 01       	.word	0x0100;	????	
 3fa:	03 01       	.word	0x0103;	????	
 3fc:	dc c3 7a c4 	bic.b	#1,	-15238(r12);r3 As==01, 0xc47a(r12)
 400:	a4 00       	.word	0x00a4;	????	
 402:	00 00       	.word	0x0000;	????	
 404:	5a 00       	.word	0x005a;	????	
 406:	00 00       	.word	0x0000;	????	
 408:	04 33       	jn	$-502    	;abs 0x212
 40a:	02 00       	.word	0x0002;	????	
 40c:	00 01       	.word	0x0100;	????	
 40e:	03 21       	jnz	$+520    	;abs 0x616
 410:	00 00       	.word	0x0000;	????	
 412:	00 02       	.word	0x0200;	????	
 414:	91 7a 04 20 	subc	8196(r10),2(r1)	;0x2004(r10), 0x0002(r1)
 418:	02 00 
 41a:	00 01       	.word	0x0100;	????	
 41c:	03 5a       	.word	0x5a03;	????	Illegal as 2-op instr
 41e:	00 00       	.word	0x0000;	????	
 420:	00 02       	.word	0x0200;	????	
 422:	91 7c 00 05 	subc	1280(r12),24578(r1);0x0500(r12), 0x6002(r1)
 426:	02 60 
 428:	00 00       	.word	0x0000;	????	
 42a:	00 06       	.word	0x0600;	????	
 42c:	65 00       	.word	0x0065;	????	
 42e:	00 00       	.word	0x0000;	????	
 430:	07 21       	jnz	$+528    	;abs 0x640
 432:	00 00       	.word	0x0000;	????	
 434:	00 08       	.word	0x0800;	????	
 436:	16 02       	.word	0x0216;	????	
 438:	00 00       	.word	0x0000;	????	
 43a:	02 ac       	dadd	r12,	r2	
 43c:	14 02       	.word	0x0214;	????	
 43e:	00 00       	.word	0x0000;	????	
 440:	7b 00       	.word	0x007b;	????	
 442:	00 00       	.word	0x0000;	????	
 444:	01 01       	.word	0x0101;	????	
 446:	07 80       	sub	r0,	r7	
 448:	00 00       	.word	0x0000;	????	
 44a:	00 02       	.word	0x0200;	????	
 44c:	01 08       	.word	0x0801;	????	
 44e:	71 00       	.word	0x0071;	????	
 450:	00 00       	.word	0x0000;	????	
 452:	08 0a       	.word	0x0a08;	????	
 454:	02 00       	.word	0x0002;	????	
 456:	00 02       	.word	0x0200;	????	
 458:	ae 08       	.word	0x08ae;	????	
 45a:	02 00       	.word	0x0002;	????	
 45c:	00 7b       	subc	r11,	r0	
 45e:	00 00       	.word	0x0000;	????	
 460:	00 01       	.word	0x0100;	????	
 462:	01 08       	.word	0x0801;	????	
 464:	2a 02       	.word	0x022a;	????	
 466:	00 00       	.word	0x0000;	????	
 468:	02 b0       	bit	r0,	r2	
 46a:	28 02       	.word	0x0228;	????	
 46c:	00 00       	.word	0x0000;	????	
 46e:	7b 00       	.word	0x007b;	????	
 470:	00 00       	.word	0x0000;	????	
 472:	01 01       	.word	0x0101;	????	
 474:	08 5c       	add	r12,	r8	
 476:	02 00       	.word	0x0002;	????	
 478:	00 02       	.word	0x0200;	????	
 47a:	b3 5a       	add	@r10+,	#1	;r3 As==01
 47c:	02 00       	.word	0x0002;	????	
 47e:	00 65       	addc	r5,	r0	
 480:	00 00       	.word	0x0000;	????	
 482:	00 01       	.word	0x0100;	????	
 484:	01 08       	.word	0x0801;	????	
 486:	fe 01       	.word	0x01fe;	????	
 488:	00 00       	.word	0x0000;	????	
 48a:	02 b5       	bit	r5,	r2	
 48c:	fc 01       	.word	0x01fc;	????	
 48e:	00 00       	.word	0x0000;	????	
 490:	65 00       	.word	0x0065;	????	
 492:	00 00       	.word	0x0000;	????	
 494:	01 01       	.word	0x0101;	????	
 496:	08 43       	clr	r8		
 498:	02 00       	.word	0x0002;	????	
 49a:	00 02       	.word	0x0200;	????	
 49c:	b9 41 02 00 	pop	2(r9)		;0x0002(r9)
 4a0:	00 65       	addc	r5,	r0	
 4a2:	00 00       	.word	0x0000;	????	
 4a4:	00 01       	.word	0x0100;	????	
 4a6:	01 00       	.word	0x0001;	????	
 4a8:	50 02       	.word	0x0250;	????	
 4aa:	00 00       	.word	0x0000;	????	
 4ac:	02 00       	.word	0x0002;	????	
 4ae:	5d 01       	.word	0x015d;	????	
 4b0:	00 00       	.word	0x0000;	????	
 4b2:	02 01       	.word	0x0102;	????	
 4b4:	56 01       	.word	0x0156;	????	
 4b6:	00 00       	.word	0x0000;	????	
 4b8:	01 e6       	xor	r6,	r1	
 4ba:	02 00       	.word	0x0002;	????	
 4bc:	00 6b       	addc	r11,	r0	
 4be:	02 00       	.word	0x0002;	????	
 4c0:	00 7a       	subc	r10,	r0	
 4c2:	c4 e4 c6 82 	xor.b	r4,	-32058(r4);0x82c6(r4)
 4c6:	01 00       	.word	0x0001;	????	
 4c8:	00 02       	.word	0x0200;	????	
 4ca:	ff 02       	.word	0x02ff;	????	
 4cc:	00 00       	.word	0x0000;	????	
 4ce:	02 28       	jnc	$+6      	;abs 0x4d4
 4d0:	2c 00       	.word	0x002c;	????	
 4d2:	00 00       	.word	0x0000;	????	
 4d4:	03 02       	.word	0x0203;	????	
 4d6:	b0 02       	.word	0x02b0;	????	
 4d8:	00 00       	.word	0x0000;	????	
 4da:	02 06       	.word	0x0602;	????	
 4dc:	03 00       	.word	0x0003;	????	
 4de:	00 02       	.word	0x0200;	????	
 4e0:	66 21       	jnz	$+718    	;abs 0x7ae
 4e2:	00 00       	.word	0x0000;	????	
 4e4:	00 04       	.word	0x0400;	????	
 4e6:	cd 02       	.word	0x02cd;	????	
 4e8:	00 00       	.word	0x0000;	????	
 4ea:	01 59       	add	r9,	r1	
 4ec:	01 7a       	subc	r10,	r1	
 4ee:	c4 e4 c4 b8 	xor.b	r4,	-18236(r4);0xb8c4(r4)
 4f2:	00 00       	.word	0x0000;	????	
 4f4:	00 87       	sub	r7,	r0	
 4f6:	00 00       	.word	0x0000;	????	
 4f8:	00 05       	.word	0x0500;	????	
 4fa:	78 00       	.word	0x0078;	????	
 4fc:	01 59       	add	r9,	r1	
 4fe:	87 00       	.word	0x0087;	????	
 500:	00 00       	.word	0x0000;	????	
 502:	ec 00       	.word	0x00ec;	????	
 504:	00 00       	.word	0x0000;	????	
 506:	05 64       	addc	r4,	r5	
 508:	70 00       	.word	0x0070;	????	
 50a:	01 59       	add	r9,	r1	
 50c:	8e 00       	.word	0x008e;	????	
 50e:	00 00       	.word	0x0000;	????	
 510:	08 01       	.word	0x0108;	????	
 512:	00 00       	.word	0x0000;	????	
 514:	06 63       	adc	r6		
 516:	00 01       	.word	0x0100;	????	
 518:	5b 99 00 00 	cmp.b	0(r9),	r11	;0x0000(r9)
 51c:	00 1a       	.word	0x1a00;	????	
 51e:	01 00       	.word	0x0001;	????	
 520:	00 06       	.word	0x0600;	????	
 522:	64 00       	.word	0x0064;	????	
 524:	01 5c       	add	r12,	r1	
 526:	87 00       	.word	0x0087;	????	
 528:	00 00       	.word	0x0000;	????	
 52a:	2e 01       	.word	0x012e;	????	
 52c:	00 00       	.word	0x0000;	????	
 52e:	00 07       	.word	0x0700;	????	
 530:	04 07       	.word	0x0704;	????	
 532:	bd 03       	.word	0x03bd;	????	
 534:	00 00       	.word	0x0000;	????	
 536:	08 02       	.word	0x0208;	????	
 538:	94 00       	.word	0x0094;	????	
 53a:	00 00       	.word	0x0000;	????	
 53c:	09 87       	sub	r7,	r9	
 53e:	00 00       	.word	0x0000;	????	
 540:	00 07       	.word	0x0700;	????	
 542:	01 06       	.word	0x0601;	????	
 544:	7a 00       	.word	0x007a;	????	
 546:	00 00       	.word	0x0000;	????	
 548:	0a e0       	xor	r0,	r10	
 54a:	02 00       	.word	0x0002;	????	
 54c:	00 01       	.word	0x0100;	????	
 54e:	53 01       	.word	0x0153;	????	
 550:	e4 c4 f2 c4 	bic.b	@r4,	-15118(r4);0xc4f2(r4)
 554:	02 71       	subc	r1,	r2	
 556:	02 d0       	bis	r0,	r2	
 558:	00 00       	.word	0x0000;	????	
 55a:	00 05       	.word	0x0500;	????	
 55c:	6e 00       	.word	0x006e;	????	
 55e:	01 53       	add	#0,	r1	;r3 As==00
 560:	d0 00       	.word	0x00d0;	????	
 562:	00 00       	.word	0x0000;	????	
 564:	46 01       	.word	0x0146;	????	
 566:	00 00       	.word	0x0000;	????	
 568:	0b 68       	addc	r8,	r11	
 56a:	65 78       	subc.b	@r8,	r5	
 56c:	00 01       	.word	0x0100;	????	
 56e:	55 e7 00 00 	xor.b	0(r7),	r5	;0x0000(r7)
 572:	00 03       	.word	0x0300;	????	
 574:	03 5c       	.word	0x5c03;	????	Illegal as 2-op instr
 576:	cd 00       	.word	0x00cd;	????	
 578:	07 02       	.word	0x0207;	????	
 57a:	07 c2       	bic	r2,	r7	
 57c:	03 00       	.word	0x0003;	????	
 57e:	00 0c       	.word	0x0c00;	????	
 580:	99 00       	.word	0x0099;	????	
 582:	00 00       	.word	0x0000;	????	
 584:	e7 00       	.word	0x00e7;	????	
 586:	00 00       	.word	0x0000;	????	
 588:	0d d0       	bis	r0,	r13	
 58a:	00 00       	.word	0x0000;	????	
 58c:	00 0f       	.word	0x0f00;	????	
 58e:	00 09       	.word	0x0900;	????	
 590:	d7 00       	.word	0x00d7;	????	
 592:	00 00       	.word	0x0000;	????	
 594:	0e 01       	.word	0x010e;	????	
 596:	f5 02       	.word	0x02f5;	????	
 598:	00 00       	.word	0x0000;	????	
 59a:	01 18       	.word	0x1801;	????	
 59c:	01 f2       	and	r2,	r1	
 59e:	c4 06       	.word	0x06c4;	????	
 5a0:	c5 51 01 00 	add.b	r1,	1(r5)	;0x0001(r5)
 5a4:	00 1e       	.word	0x1e00;	????	
 5a6:	01 00       	.word	0x0001;	????	
 5a8:	00 0f       	.word	0x0f00;	????	
 5aa:	66 02       	.word	0x0266;	????	
 5ac:	00 00       	.word	0x0000;	????	
 5ae:	01 18       	.word	0x1801;	????	
 5b0:	1e 01       	.word	0x011e;	????	
 5b2:	00 00       	.word	0x0000;	????	
 5b4:	65 01       	.word	0x0165;	????	
 5b6:	00 00       	.word	0x0000;	????	
 5b8:	06 69       	addc	r9,	r6	
 5ba:	00 01       	.word	0x0100;	????	
 5bc:	1a 24       	jz	$+54     	;abs 0x5f2
 5be:	01 00       	.word	0x0001;	????	
 5c0:	00 70       	subc	r0,	r0	
 5c2:	01 00       	.word	0x0001;	????	
 5c4:	00 00       	.word	0x0000;	????	
 5c6:	08 02       	.word	0x0208;	????	
 5c8:	99 00       	.word	0x0099;	????	
 5ca:	00 00       	.word	0x0000;	????	
 5cc:	10 02       	.word	0x0210;	????	
 5ce:	05 69       	addc	r9,	r5	
 5d0:	6e 74       	subc.b	@r4,	r14	
 5d2:	00 0e       	.word	0x0e00;	????	
 5d4:	01 c2       	bic	r2,	r1	
 5d6:	02 00       	.word	0x0002;	????	
 5d8:	00 01       	.word	0x0100;	????	
 5da:	21 01       	.word	0x0121;	????	
 5dc:	06 c5       	bic	r5,	r6	
 5de:	80 c5 7c 01 	bic	r5,	380(r0)	;PC rel. 0x075c
 5e2:	00 00       	.word	0x0000;	????	
 5e4:	76 01       	.word	0x0176;	????	
 5e6:	00 00       	.word	0x0000;	????	
 5e8:	05 6e       	addc	r14,	r5	
 5ea:	00 01       	.word	0x0100;	????	
 5ec:	21 24       	jz	$+68     	;abs 0x630
 5ee:	01 00       	.word	0x0001;	????	
 5f0:	00 a8       	dadd	r8,	r0	
 5f2:	01 00       	.word	0x0001;	????	
 5f4:	00 11       	rra	r0		
 5f6:	0e 03       	.word	0x030e;	????	
 5f8:	00 00       	.word	0x0000;	????	
 5fa:	01 23       	jnz	$-508    	;abs 0x3fe
 5fc:	76 01       	.word	0x0176;	????	
 5fe:	00 00       	.word	0x0000;	????	
 600:	02 91       	cmp	r1,	r2	
 602:	58 06       	.word	0x0658;	????	
 604:	69 00       	.word	0x0069;	????	
 606:	01 24       	jz	$+4      	;abs 0x60a
 608:	24 01       	.word	0x0124;	????	
 60a:	00 00       	.word	0x0000;	????	
 60c:	cf 01       	.word	0x01cf;	????	
 60e:	00 00       	.word	0x0000;	????	
 610:	06 6a       	addc	r10,	r6	
 612:	00 01       	.word	0x0100;	????	
 614:	25 24       	jz	$+76     	;abs 0x660
 616:	01 00       	.word	0x0001;	????	
 618:	00 da       	bis	r10,	r0	
 61a:	01 00       	.word	0x0001;	????	
 61c:	00 00       	.word	0x0000;	????	
 61e:	0c 24       	jz	$+26     	;abs 0x638
 620:	01 00       	.word	0x0001;	????	
 622:	00 86       	sub	r6,	r0	
 624:	01 00       	.word	0x0001;	????	
 626:	00 0d       	.word	0x0d00;	????	
 628:	d0 00       	.word	0x00d0;	????	
 62a:	00 00       	.word	0x0000;	????	
 62c:	0f 00       	.word	0x000f;	????	
 62e:	0e 01       	.word	0x010e;	????	
 630:	9a 02       	.word	0x029a;	????	
 632:	00 00       	.word	0x0000;	????	
 634:	01 36       	jge	$-1020   	;abs 0x238
 636:	01 80       	sub	r0,	r1	
 638:	c5 ba c5 e7 	bit.b	r10,	-6203(r5);0xe7c5(r5)
 63c:	01 00       	.word	0x0001;	????	
 63e:	00 c5       	bic	r5,	r0	
 640:	01 00       	.word	0x0001;	????	
 642:	00 05       	.word	0x0500;	????	
 644:	6e 00       	.word	0x006e;	????	
 646:	01 36       	jge	$-1020   	;abs 0x24a
 648:	24 01       	.word	0x0124;	????	
 64a:	00 00       	.word	0x0000;	????	
 64c:	03 02       	.word	0x0203;	????	
 64e:	00 00       	.word	0x0000;	????	
 650:	0f db       	bis	r11,	r15	
 652:	02 00       	.word	0x0002;	????	
 654:	00 01       	.word	0x0100;	????	
 656:	36 24       	jz	$+110    	;abs 0x6c4
 658:	01 00       	.word	0x0001;	????	
 65a:	00 15       	.word	0x1500;	????	
 65c:	02 00       	.word	0x0002;	????	
 65e:	00 06       	.word	0x0600;	????	
 660:	69 00       	.word	0x0069;	????	
 662:	01 38       	jl	$+4      	;abs 0x666
 664:	24 01       	.word	0x0124;	????	
 666:	00 00       	.word	0x0000;	????	
 668:	20 02       	.word	0x0220;	????	
 66a:	00 00       	.word	0x0000;	????	
 66c:	00 0e       	.word	0x0e00;	????	
 66e:	01 a5       	dadd	r5,	r1	
 670:	02 00       	.word	0x0002;	????	
 672:	00 01       	.word	0x0100;	????	
 674:	6a 01       	.word	0x016a;	????	
 676:	ba c5 e4 c6 	bic	@r5+,	-14620(r10);0xc6e4(r10)
 67a:	32 02       	.word	0x0232;	????	
 67c:	00 00       	.word	0x0000;	????	
 67e:	28 02       	.word	0x0228;	????	
 680:	00 00       	.word	0x0000;	????	
 682:	0f ee       	xor	r14,	r15	
 684:	02 00       	.word	0x0002;	????	
 686:	00 01       	.word	0x0100;	????	
 688:	6a 1e       	.word	0x1e6a;	????	
 68a:	01 00       	.word	0x0001;	????	
 68c:	00 5e       	add	r14,	r0	
 68e:	02 00       	.word	0x0002;	????	
 690:	00 12       	push	r0		
 692:	06 63       	adc	r6		
 694:	00 01       	.word	0x0100;	????	
 696:	6c 99       	cmp.b	@r9,	r12	
 698:	00 00       	.word	0x0000;	????	
 69a:	00 93       	tst	r0		
 69c:	02 00       	.word	0x0002;	????	
 69e:	00 06       	.word	0x0600;	????	
 6a0:	69 00       	.word	0x0069;	????	
 6a2:	01 6d       	addc	r13,	r1	
 6a4:	24 01       	.word	0x0124;	????	
 6a6:	00 00       	.word	0x0000;	????	
 6a8:	00 03       	.word	0x0300;	????	
 6aa:	00 00       	.word	0x0000;	????	
 6ac:	06 6e       	addc	r14,	r6	
 6ae:	00 01       	.word	0x0100;	????	
 6b0:	6e 28       	jnc	$+222    	;abs 0x78e
 6b2:	02 00       	.word	0x0002;	????	
 6b4:	00 22       	jnz	$-1022   	;abs 0x2b6
 6b6:	03 00       	.word	0x0003;	????	
 6b8:	00 06       	.word	0x0600;	????	
 6ba:	61 00       	.word	0x0061;	????	
 6bc:	01 70       	subc	r0,	r1	
 6be:	32 00       	.word	0x0032;	????	
 6c0:	00 00       	.word	0x0000;	????	
 6c2:	4d 03       	.word	0x034d;	????	
 6c4:	00 00       	.word	0x0000;	????	
 6c6:	13 d3       	.word	0xd313;	????	Illegal as 2-op instr
 6c8:	02 00       	.word	0x0002;	????	
 6ca:	00 01       	.word	0x0100;	????	
 6cc:	95 d0 c6 00 	bis	198(r0),1031(r5);PC rel. 0x0794, 0x0407(r5)
 6d0:	07 04 
 6d2:	05 1c       	.word	0x1c05;	????	
 6d4:	04 00       	.word	0x0004;	????	
 6d6:	00 0c       	.word	0x0c00;	????	
 6d8:	87 00       	.word	0x0087;	????	
 6da:	00 00       	.word	0x0000;	????	
 6dc:	3f 02       	.word	0x023f;	????	
 6de:	00 00       	.word	0x0000;	????	
 6e0:	0d d0       	bis	r0,	r13	
 6e2:	00 00       	.word	0x0000;	????	
 6e4:	00 09       	.word	0x0900;	????	
 6e6:	00 0b       	.word	0x0b00;	????	
 6e8:	5f 64 76 00 	addc.b	118(r4),r15	;0x0076(r4)
 6ec:	01 44       	mov	r4,	r1	
 6ee:	4e 02       	.word	0x024e;	????	
 6f0:	00 00       	.word	0x0000;	????	
 6f2:	03 03       	.word	0x0303;	????	
 6f4:	34 cd       	bic	@r13+,	r4	
 6f6:	09 2f       	jc	$-492    	;abs 0x50a
 6f8:	02 00       	.word	0x0002;	????	
 6fa:	00 00       	.word	0x0000;	????	
 6fc:	5a 00       	.word	0x005a;	????	
 6fe:	00 00       	.word	0x0000;	????	
 700:	02 00       	.word	0x0002;	????	
 702:	5d 02       	.word	0x025d;	????	
 704:	00 00       	.word	0x0000;	????	
 706:	02 01       	.word	0x0102;	????	
 708:	56 01       	.word	0x0156;	????	
 70a:	00 00       	.word	0x0000;	????	
 70c:	01 29       	jnc	$+516    	;abs 0x910
 70e:	03 00       	.word	0x0003;	????	
 710:	00 6b       	addc	r11,	r0	
 712:	02 00       	.word	0x0002;	????	
 714:	00 e4       	xor	r4,	r0	
 716:	c6 f0 c6 8d 	and.b	r0,	-29242(r6);0x8dc6(r6)
 71a:	02 00       	.word	0x0002;	????	
 71c:	00 02       	.word	0x0200;	????	
 71e:	01 1e       	.word	0x1e01;	????	
 720:	03 00       	.word	0x0003;	????	
 722:	00 01       	.word	0x0100;	????	
 724:	17 01       	.word	0x0117;	????	
 726:	e4 c6 ea c6 	bic.b	@r6,	-14614(r4);0xc6ea(r4)
 72a:	02 71       	subc	r1,	r2	
 72c:	02 43       	clr	r2		
 72e:	00 00       	.word	0x0000;	????	
 730:	00 03       	.word	0x0300;	????	
 732:	63 00       	.word	0x0063;	????	
 734:	01 17       	.word	0x1701;	????	
 736:	43 00       	.word	0x0043;	????	
 738:	00 00       	.word	0x0000;	????	
 73a:	9e 03       	.word	0x039e;	????	
 73c:	00 00       	.word	0x0000;	????	
 73e:	00 04       	.word	0x0400;	????	
 740:	01 06       	.word	0x0601;	????	
 742:	7a 00       	.word	0x007a;	????	
 744:	00 00       	.word	0x0000;	????	
 746:	05 01       	.word	0x0105;	????	
 748:	15 03       	.word	0x0315;	????	
 74a:	00 00       	.word	0x0000;	????	
 74c:	01 1c       	.word	0x1c01;	????	
 74e:	43 00       	.word	0x0043;	????	
 750:	00 00       	.word	0x0000;	????	
 752:	ea c6 f0 c6 	bic.b	@r6,	-14608(r10);0xc6f0(r10)
 756:	02 71       	subc	r1,	r2	
 758:	02 00       	.word	0x0002;	????	
 75a:	c3 01       	.word	0x01c3;	????	
 75c:	00 00       	.word	0x0000;	????	
 75e:	02 00       	.word	0x0002;	????	
 760:	b7 02       	.word	0x02b7;	????	
 762:	00 00       	.word	0x0000;	????	
 764:	02 01       	.word	0x0102;	????	
 766:	56 01       	.word	0x0156;	????	
 768:	00 00       	.word	0x0000;	????	
 76a:	01 56       	add	r6,	r1	
 76c:	03 00       	.word	0x0003;	????	
 76e:	00 db       	bis	r11,	r0	
 770:	03 00       	.word	0x0003;	????	
 772:	00 f0       	and	r0,	r0	
 774:	c6 52 c8 ce 	add.b	r2,	-12600(r6);0xcec8(r6)
 778:	02 00       	.word	0x0002;	????	
 77a:	00 02       	.word	0x0200;	????	
 77c:	02 07       	.word	0x0702;	????	
 77e:	c2 03       	.word	0x03c2;	????	
 780:	00 00       	.word	0x0000;	????	
 782:	02 01       	.word	0x0102;	????	
 784:	06 73       	sbc	r6		
 786:	00 00       	.word	0x0000;	????	
 788:	00 03       	.word	0x0300;	????	
 78a:	02 05       	.word	0x0502;	????	
 78c:	69 6e       	addc.b	@r14,	r9	
 78e:	74 00       	.word	0x0074;	????	
 790:	02 04       	.word	0x0402;	????	
 792:	05 1c       	.word	0x1c05;	????	
 794:	04 00       	.word	0x0004;	????	
 796:	00 02       	.word	0x0200;	????	
 798:	08 05       	.word	0x0508;	????	
 79a:	17 04       	.word	0x0417;	????	
 79c:	00 00       	.word	0x0000;	????	
 79e:	02 01       	.word	0x0102;	????	
 7a0:	08 71       	subc	r1,	r8	
 7a2:	00 00       	.word	0x0000;	????	
 7a4:	00 02       	.word	0x0200;	????	
 7a6:	04 07       	.word	0x0704;	????	
 7a8:	bd 03       	.word	0x03bd;	????	
 7aa:	00 00       	.word	0x0000;	????	
 7ac:	02 08       	.word	0x0802;	????	
 7ae:	07 b8       	bit	r8,	r7	
 7b0:	03 00       	.word	0x0003;	????	
 7b2:	00 04       	.word	0x0400;	????	
 7b4:	01 a8       	dadd	r8,	r1	
 7b6:	03 00       	.word	0x0003;	????	
 7b8:	00 01       	.word	0x0100;	????	
 7ba:	2a 01       	.word	0x012a;	????	
 7bc:	f0 c6 1a c8 	bic.b	@r6+,	-14310(r0);PC rel. 0xcfd8
 7c0:	02 71       	subc	r1,	r2	
 7c2:	02 8d       	sub	r13,	r2	
 7c4:	00 00       	.word	0x0000;	????	
 7c6:	00 05       	.word	0x0500;	????	
 7c8:	38 03       	.word	0x0338;	????	
 7ca:	00 00       	.word	0x0000;	????	
 7cc:	01 2a       	jnc	$-1020   	;abs 0x3d0
 7ce:	36 00       	.word	0x0036;	????	
 7d0:	00 00       	.word	0x0000;	????	
 7d2:	06 5e       	add	r14,	r6	
 7d4:	93 02       	.word	0x0293;	????	
 7d6:	5f 93       	cmp.b	#1,	r15	;r3 As==01
 7d8:	02 05       	.word	0x0502;	????	
 7da:	9f 03       	.word	0x039f;	????	
 7dc:	00 00       	.word	0x0000;	????	
 7de:	01 2a       	jnc	$-1020   	;abs 0x3e2
 7e0:	21 00       	.word	0x0021;	????	
 7e2:	00 00       	.word	0x0000;	????	
 7e4:	01 5d       	add	r13,	r1	
 7e6:	00 04       	.word	0x0400;	????	
 7e8:	01 0b       	.word	0x0b01;	????	
 7ea:	04 00       	.word	0x0004;	????	
 7ec:	00 01       	.word	0x0100;	????	
 7ee:	25 01       	.word	0x0125;	????	
 7f0:	1a c8 2a c8 	bic	-14294(r8),r10	;0xc82a(r8)
 7f4:	02 71       	subc	r1,	r2	
 7f6:	02 b1       	bit	r1,	r2	
 7f8:	00 00       	.word	0x0000;	????	
 7fa:	00 06       	.word	0x0600;	????	
 7fc:	9f 03       	.word	0x039f;	????	
 7fe:	00 00       	.word	0x0000;	????	
 800:	01 25       	jz	$+516    	;abs 0xa04
 802:	21 00       	.word	0x0021;	????	
 804:	00 00       	.word	0x0000;	????	
 806:	a9 03       	.word	0x03a9;	????	
 808:	00 00       	.word	0x0000;	????	
 80a:	00 04       	.word	0x0400;	????	
 80c:	01 8e       	sub	r14,	r1	
 80e:	03 00       	.word	0x0003;	????	
 810:	00 01       	.word	0x0100;	????	
 812:	5d 01       	.word	0x015d;	????	
 814:	2a c8       	bic	@r8,	r10	
 816:	30 c8       	bic	@r8+,	r0	
 818:	02 71       	subc	r1,	r2	
 81a:	02 d3       	bis	#0,	r2	;r3 As==00
 81c:	00 00       	.word	0x0000;	????	
 81e:	00 05       	.word	0x0500;	????	
 820:	9a 03       	.word	0x039a;	????	
 822:	00 00       	.word	0x0000;	????	
 824:	01 5d       	add	r13,	r1	
 826:	44 00       	.word	0x0044;	????	
 828:	00 00       	.word	0x0000;	????	
 82a:	01 5f       	add	r15,	r1	
 82c:	00 04       	.word	0x0400;	????	
 82e:	01 30       	jn	$+4      	;abs 0x832
 830:	04 00       	.word	0x0004;	????	
 832:	00 01       	.word	0x0100;	????	
 834:	62 01       	.word	0x0162;	????	
 836:	30 c8       	bic	@r8+,	r0	
 838:	3e c8       	bic	@r8+,	r14	
 83a:	02 71       	subc	r1,	r2	
 83c:	02 f5       	and	r5,	r2	
 83e:	00 00       	.word	0x0000;	????	
 840:	00 05       	.word	0x0500;	????	
 842:	9a 03       	.word	0x039a;	????	
 844:	00 00       	.word	0x0000;	????	
 846:	01 62       	addc	r2,	r1	
 848:	44 00       	.word	0x0044;	????	
 84a:	00 00       	.word	0x0000;	????	
 84c:	01 5f       	add	r15,	r1	
 84e:	00 07       	.word	0x0700;	????	
 850:	01 82       	sub	r2,	r1	
 852:	03 00       	.word	0x0003;	????	
 854:	00 01       	.word	0x0100;	????	
 856:	68 44       	mov.b	@r4,	r8	
 858:	00 00       	.word	0x0000;	????	
 85a:	00 3e       	jmp	$-1022   	;abs 0x45c
 85c:	c8 44 c8 02 	mov.b	r4,	712(r8)	;0x02c8(r8)
 860:	71 02       	.word	0x0271;	????	
 862:	07 01       	.word	0x0107;	????	
 864:	41 03       	.word	0x0341;	????	
 866:	00 00       	.word	0x0000;	????	
 868:	01 6d       	addc	r13,	r1	
 86a:	44 00       	.word	0x0044;	????	
 86c:	00 00       	.word	0x0000;	????	
 86e:	44 c8       	bic.b	r8,	r4	
 870:	52 c8 02 71 	bic.b	28930(r8),r2	;0x7102(r8)
 874:	02 08       	.word	0x0802;	????	
 876:	47 04       	.word	0x0447;	????	
 878:	00 00       	.word	0x0000;	????	
 87a:	02 9e       	cmp	r14,	r2	
 87c:	45 04       	.word	0x0445;	????	
 87e:	00 00       	.word	0x0000;	????	
 880:	2c 01       	.word	0x012c;	????	
 882:	00 00       	.word	0x0000;	????	
 884:	01 01       	.word	0x0101;	????	
 886:	09 44       	mov	r4,	r9	
 888:	00 00       	.word	0x0000;	????	
 88a:	00 0a       	.word	0x0a00;	????	
 88c:	49 00       	.word	0x0049;	????	
 88e:	00 00       	.word	0x0000;	????	
 890:	02 e2       	xor	r2,	r2	
 892:	01 47       	mov	r7,	r1	
 894:	00 00       	.word	0x0000;	????	
 896:	00 2c       	jc	$+2      	;abs 0x898
 898:	01 00       	.word	0x0001;	????	
 89a:	00 01       	.word	0x0100;	????	
 89c:	01 0a       	.word	0x0a01;	????	
 89e:	40 00       	.word	0x0040;	????	
 8a0:	00 00       	.word	0x0000;	????	
 8a2:	02 e4       	xor	r4,	r2	
 8a4:	01 3e       	jmp	$-1020   	;abs 0x4a8
 8a6:	00 00       	.word	0x0000;	????	
 8a8:	00 2c       	jc	$+2      	;abs 0x8aa
 8aa:	01 00       	.word	0x0001;	????	
 8ac:	00 01       	.word	0x0100;	????	
 8ae:	01 0a       	.word	0x0a01;	????	
 8b0:	79 03       	.word	0x0379;	????	
 8b2:	00 00       	.word	0x0000;	????	
 8b4:	02 af       	dadd	r15,	r2	
 8b6:	02 77       	subc	r7,	r2	
 8b8:	03 00       	.word	0x0003;	????	
 8ba:	00 2c       	jc	$+2      	;abs 0x8bc
 8bc:	01 00       	.word	0x0001;	????	
 8be:	00 01       	.word	0x0100;	????	
 8c0:	01 0a       	.word	0x0a01;	????	
 8c2:	4e 04       	.word	0x044e;	????	
 8c4:	00 00       	.word	0x0000;	????	
 8c6:	02 b1       	bit	r1,	r2	
 8c8:	02 4c       	mov	r12,	r2	
 8ca:	04 00       	.word	0x0004;	????	
 8cc:	00 2c       	jc	$+2      	;abs 0x8ce
 8ce:	01 00       	.word	0x0001;	????	
 8d0:	00 01       	.word	0x0100;	????	
 8d2:	01 0a       	.word	0x0a01;	????	
 8d4:	58 04       	.word	0x0458;	????	
 8d6:	00 00       	.word	0x0000;	????	
 8d8:	02 b3       	bit	#0,	r2	;r3 As==00
 8da:	02 56       	add	r6,	r2	
 8dc:	04 00       	.word	0x0004;	????	
 8de:	00 2c       	jc	$+2      	;abs 0x8e0
 8e0:	01 00       	.word	0x0001;	????	
 8e2:	00 01       	.word	0x0100;	????	
 8e4:	01 0a       	.word	0x0a01;	????	
 8e6:	27 04       	.word	0x0427;	????	
 8e8:	00 00       	.word	0x0000;	????	
 8ea:	02 b5       	bit	r5,	r2	
 8ec:	02 25       	jz	$+518    	;abs 0xaf2
 8ee:	04 00       	.word	0x0004;	????	
 8f0:	00 2c       	jc	$+2      	;abs 0x8f2
 8f2:	01 00       	.word	0x0001;	????	
 8f4:	00 01       	.word	0x0100;	????	
 8f6:	01 0a       	.word	0x0a01;	????	
 8f8:	6d 03       	.word	0x036d;	????	
 8fa:	00 00       	.word	0x0000;	????	
 8fc:	02 b9       	bit	r9,	r2	
 8fe:	02 6b       	addc	r11,	r2	
 900:	03 00       	.word	0x0003;	????	
 902:	00 af       	dadd	r15,	r0	
 904:	01 00       	.word	0x0001;	????	
 906:	00 01       	.word	0x0100;	????	
 908:	01 0b       	.word	0x0b01;	????	
 90a:	2c 01       	.word	0x012c;	????	
 90c:	00 00       	.word	0x0000;	????	
 90e:	0a d1       	bis	r1,	r10	
 910:	03 00       	.word	0x0003;	????	
 912:	00 02       	.word	0x0200;	????	
 914:	bb 02       	.word	0x02bb;	????	
 916:	cf 03       	.word	0x03cf;	????	
 918:	00 00       	.word	0x0000;	????	
 91a:	2c 01       	.word	0x012c;	????	
 91c:	00 00       	.word	0x0000;	????	
 91e:	01 01       	.word	0x0101;	????	
 920:	00 e0       	xor	r0,	r0	
 922:	00 00       	.word	0x0000;	????	
 924:	00 02       	.word	0x0200;	????	
 926:	00 61       	addc	r1,	r0	
 928:	03 00       	.word	0x0003;	????	
 92a:	00 02       	.word	0x0200;	????	
 92c:	01 8f       	sub	r15,	r1	
 92e:	03 00       	.word	0x0003;	????	
 930:	00 52       	add	r2,	r0	
 932:	c8 8c c8 2f 	sub.b	r12,	12232(r8);0x2fc8(r8)
 936:	62 75       	subc.b	@r5,	r2	
 938:	69 6c       	addc.b	@r12,	r9	
 93a:	64 2f       	jc	$-310    	;abs 0x804
 93c:	67 63       	addc.b	#2,	r7	;r3 As==10
 93e:	63 2d       	jc	$+712    	;abs 0xc06
 940:	6d 73       	subc.b	#2,	r13	;r3 As==10
 942:	70 34       	jge	$+226    	;abs 0xa24
 944:	33 30       	jn	$+104    	;abs 0x9ac
 946:	2d 52       	add	#4,	r13	;r2 As==10
 948:	32 61       	addc	@r1+,	r2	
 94a:	38 4e       	mov	@r14+,	r8	
 94c:	33 2f       	jc	$-408    	;abs 0x7b4
 94e:	67 63       	addc.b	#2,	r7	;r3 As==10
 950:	63 2d       	jc	$+712    	;abs 0xc18
 952:	6d 73       	subc.b	#2,	r13	;r3 As==10
 954:	70 34       	jge	$+226    	;abs 0xa36
 956:	33 30       	jn	$+104    	;abs 0x9be
 958:	2d 34       	jge	$+92     	;abs 0x9b4
 95a:	2e 36       	jge	$-930    	;abs 0x5b8
 95c:	2e 33       	jn	$-418    	;abs 0x7ba
 95e:	7e 6d       	addc.b	@r13+,	r14	
 960:	73 70       	.word	0x7073;	????	Illegal as 2-op instr
 962:	67 63       	addc.b	#2,	r7	;r3 As==10
 964:	63 2d       	jc	$+712    	;abs 0xc2c
 966:	32 30       	jn	$+102    	;abs 0x9cc
 968:	31 32       	jn	$-924    	;abs 0x5cc
 96a:	30 34       	jge	$+98     	;abs 0x9cc
 96c:	30 36       	jge	$-926    	;abs 0x5ce
 96e:	2f 2e       	jc	$-928    	;abs 0x5ce
 970:	2f 67       	addc	@r7,	r15	
 972:	63 63       	.word	0x6363;	????	Illegal as 2-op instr
 974:	2d 34       	jge	$+92     	;abs 0x9d0
 976:	2e 36       	jge	$-930    	;abs 0x5d4
 978:	2e 33       	jn	$-418    	;abs 0x7d6
 97a:	2f 6c       	addc	@r12,	r15	
 97c:	69 62       	addc.b	#4,	r9	;r2 As==10
 97e:	67 63       	addc.b	#2,	r7	;r3 As==10
 980:	63 2f       	jc	$-312    	;abs 0x848
 982:	2e 2e       	jc	$-930    	;abs 0x5e0
 984:	2f 67       	addc	@r7,	r15	
 986:	63 63       	.word	0x6363;	????	Illegal as 2-op instr
 988:	2f 63       	addc	#2,	r15	;r3 As==10
 98a:	6f 6e       	addc.b	@r14,	r15	
 98c:	66 69       	addc.b	@r9,	r6	
 98e:	67 2f       	jc	$-304    	;abs 0x85e
 990:	6d 73       	subc.b	#2,	r13	;r3 As==10
 992:	70 34       	jge	$+226    	;abs 0xa74
 994:	33 30       	jn	$+104    	;abs 0x9fc
 996:	2f 6c       	addc	@r12,	r15	
 998:	69 62       	addc.b	#4,	r9	;r2 As==10
 99a:	67 63       	addc.b	#2,	r7	;r3 As==10
 99c:	63 2e       	jc	$-824    	;abs 0x664
 99e:	53 00       	.word	0x0053;	????	
 9a0:	2f 62       	addc	#4,	r15	;r2 As==10
 9a2:	75 69       	addc.b	@r9+,	r5	
 9a4:	6c 64       	addc.b	@r4,	r12	
 9a6:	2f 67       	addc	@r7,	r15	
 9a8:	63 63       	.word	0x6363;	????	Illegal as 2-op instr
 9aa:	2d 6d       	addc	@r13,	r13	
 9ac:	73 70       	.word	0x7073;	????	Illegal as 2-op instr
 9ae:	34 33       	jn	$-406    	;abs 0x818
 9b0:	30 2d       	jc	$+610    	;abs 0xc12
 9b2:	52 32       	jn	$-858    	;abs 0x658
 9b4:	61 38       	jl	$+196    	;abs 0xa78
 9b6:	4e 33       	jn	$-354    	;abs 0x854
 9b8:	2f 67       	addc	@r7,	r15	
 9ba:	63 63       	.word	0x6363;	????	Illegal as 2-op instr
 9bc:	2d 6d       	addc	@r13,	r13	
 9be:	73 70       	.word	0x7073;	????	Illegal as 2-op instr
 9c0:	34 33       	jn	$-406    	;abs 0x82a
 9c2:	30 2d       	jc	$+610    	;abs 0xc24
 9c4:	34 2e       	jc	$-918    	;abs 0x62e
 9c6:	36 2e       	jc	$-914    	;abs 0x634
 9c8:	33 7e       	.word	0x7e33;	????	Illegal as 2-op instr
 9ca:	6d 73       	subc.b	#2,	r13	;r3 As==10
 9cc:	70 67       	addc.b	@r7+,	r0	
 9ce:	63 63       	.word	0x6363;	????	Illegal as 2-op instr
 9d0:	2d 32       	jn	$-932    	;abs 0x62c
 9d2:	30 31       	jn	$+610    	;abs 0xc34
 9d4:	32 30       	jn	$+102    	;abs 0xa3a
 9d6:	34 30       	jn	$+106    	;abs 0xa40
 9d8:	36 2f       	jc	$-402    	;abs 0x846
 9da:	62 75       	subc.b	@r5,	r2	
 9dc:	69 6c       	addc.b	@r12,	r9	
 9de:	64 2d       	jc	$+714    	;abs 0xca8
 9e0:	72 65       	addc.b	@r5+,	r2	
 9e2:	73 75       	.word	0x7573;	????	Illegal as 2-op instr
 9e4:	6c 74       	subc.b	@r4,	r12	
 9e6:	2f 6d       	addc	@r13,	r15	
 9e8:	73 70       	.word	0x7073;	????	Illegal as 2-op instr
 9ea:	34 33       	jn	$-406    	;abs 0x854
 9ec:	30 2f       	jc	$-414    	;abs 0x84e
 9ee:	6c 69       	addc.b	@r9,	r12	
 9f0:	62 67       	addc.b	@r7,	r2	
 9f2:	63 63       	.word	0x6363;	????	Illegal as 2-op instr
 9f4:	00 47       	br	r7		
 9f6:	4e 55       	add.b	r5,	r14	
 9f8:	20 41       	br	@r1		
 9fa:	53 20       	jnz	$+168    	;abs 0xaa2
 9fc:	32 2e       	jc	$-922    	;abs 0x662
 9fe:	32 31       	jn	$+614    	;abs 0xc64
 a00:	2e 31       	jn	$+606    	;abs 0xc5e
 a02:	00 01       	.word	0x0100;	????	
 a04:	80 e0 00 00 	xor	r0,	0(r0)	;PC rel. 0x0a06
 a08:	00 02       	.word	0x0200;	????	
 a0a:	00 75       	subc	r5,	r0	
 a0c:	03 00       	.word	0x0003;	????	
 a0e:	00 02       	.word	0x0200;	????	
 a10:	01 41       	mov	r1,	r1	
 a12:	04 00       	.word	0x0004;	????	
 a14:	00 8c       	sub	r12,	r0	
 a16:	c8 ae c8 2f 	dadd.b	r14,	12232(r8);0x2fc8(r8)
 a1a:	62 75       	subc.b	@r5,	r2	
 a1c:	69 6c       	addc.b	@r12,	r9	
 a1e:	64 2f       	jc	$-310    	;abs 0x8e8
 a20:	67 63       	addc.b	#2,	r7	;r3 As==10
 a22:	63 2d       	jc	$+712    	;abs 0xcea
 a24:	6d 73       	subc.b	#2,	r13	;r3 As==10
 a26:	70 34       	jge	$+226    	;abs 0xb08
 a28:	33 30       	jn	$+104    	;abs 0xa90
 a2a:	2d 52       	add	#4,	r13	;r2 As==10
 a2c:	32 61       	addc	@r1+,	r2	
 a2e:	38 4e       	mov	@r14+,	r8	
 a30:	33 2f       	jc	$-408    	;abs 0x898
 a32:	67 63       	addc.b	#2,	r7	;r3 As==10
 a34:	63 2d       	jc	$+712    	;abs 0xcfc
 a36:	6d 73       	subc.b	#2,	r13	;r3 As==10
 a38:	70 34       	jge	$+226    	;abs 0xb1a
 a3a:	33 30       	jn	$+104    	;abs 0xaa2
 a3c:	2d 34       	jge	$+92     	;abs 0xa98
 a3e:	2e 36       	jge	$-930    	;abs 0x69c
 a40:	2e 33       	jn	$-418    	;abs 0x89e
 a42:	7e 6d       	addc.b	@r13+,	r14	
 a44:	73 70       	.word	0x7073;	????	Illegal as 2-op instr
 a46:	67 63       	addc.b	#2,	r7	;r3 As==10
 a48:	63 2d       	jc	$+712    	;abs 0xd10
 a4a:	32 30       	jn	$+102    	;abs 0xab0
 a4c:	31 32       	jn	$-924    	;abs 0x6b0
 a4e:	30 34       	jge	$+98     	;abs 0xab0
 a50:	30 36       	jge	$-926    	;abs 0x6b2
 a52:	2f 2e       	jc	$-928    	;abs 0x6b2
 a54:	2f 67       	addc	@r7,	r15	
 a56:	63 63       	.word	0x6363;	????	Illegal as 2-op instr
 a58:	2d 34       	jge	$+92     	;abs 0xab4
 a5a:	2e 36       	jge	$-930    	;abs 0x6b8
 a5c:	2e 33       	jn	$-418    	;abs 0x8ba
 a5e:	2f 6c       	addc	@r12,	r15	
 a60:	69 62       	addc.b	#4,	r9	;r2 As==10
 a62:	67 63       	addc.b	#2,	r7	;r3 As==10
 a64:	63 2f       	jc	$-312    	;abs 0x92c
 a66:	2e 2e       	jc	$-930    	;abs 0x6c4
 a68:	2f 67       	addc	@r7,	r15	
 a6a:	63 63       	.word	0x6363;	????	Illegal as 2-op instr
 a6c:	2f 63       	addc	#2,	r15	;r3 As==10
 a6e:	6f 6e       	addc.b	@r14,	r15	
 a70:	66 69       	addc.b	@r9,	r6	
 a72:	67 2f       	jc	$-304    	;abs 0x942
 a74:	6d 73       	subc.b	#2,	r13	;r3 As==10
 a76:	70 34       	jge	$+226    	;abs 0xb58
 a78:	33 30       	jn	$+104    	;abs 0xae0
 a7a:	2f 6c       	addc	@r12,	r15	
 a7c:	69 62       	addc.b	#4,	r9	;r2 As==10
 a7e:	67 63       	addc.b	#2,	r7	;r3 As==10
 a80:	63 2e       	jc	$-824    	;abs 0x748
 a82:	53 00       	.word	0x0053;	????	
 a84:	2f 62       	addc	#4,	r15	;r2 As==10
 a86:	75 69       	addc.b	@r9+,	r5	
 a88:	6c 64       	addc.b	@r4,	r12	
 a8a:	2f 67       	addc	@r7,	r15	
 a8c:	63 63       	.word	0x6363;	????	Illegal as 2-op instr
 a8e:	2d 6d       	addc	@r13,	r13	
 a90:	73 70       	.word	0x7073;	????	Illegal as 2-op instr
 a92:	34 33       	jn	$-406    	;abs 0x8fc
 a94:	30 2d       	jc	$+610    	;abs 0xcf6
 a96:	52 32       	jn	$-858    	;abs 0x73c
 a98:	61 38       	jl	$+196    	;abs 0xb5c
 a9a:	4e 33       	jn	$-354    	;abs 0x938
 a9c:	2f 67       	addc	@r7,	r15	
 a9e:	63 63       	.word	0x6363;	????	Illegal as 2-op instr
 aa0:	2d 6d       	addc	@r13,	r13	
 aa2:	73 70       	.word	0x7073;	????	Illegal as 2-op instr
 aa4:	34 33       	jn	$-406    	;abs 0x90e
 aa6:	30 2d       	jc	$+610    	;abs 0xd08
 aa8:	34 2e       	jc	$-918    	;abs 0x712
 aaa:	36 2e       	jc	$-914    	;abs 0x718
 aac:	33 7e       	.word	0x7e33;	????	Illegal as 2-op instr
 aae:	6d 73       	subc.b	#2,	r13	;r3 As==10
 ab0:	70 67       	addc.b	@r7+,	r0	
 ab2:	63 63       	.word	0x6363;	????	Illegal as 2-op instr
 ab4:	2d 32       	jn	$-932    	;abs 0x710
 ab6:	30 31       	jn	$+610    	;abs 0xd18
 ab8:	32 30       	jn	$+102    	;abs 0xb1e
 aba:	34 30       	jn	$+106    	;abs 0xb24
 abc:	36 2f       	jc	$-402    	;abs 0x92a
 abe:	62 75       	subc.b	@r5,	r2	
 ac0:	69 6c       	addc.b	@r12,	r9	
 ac2:	64 2d       	jc	$+714    	;abs 0xd8c
 ac4:	72 65       	addc.b	@r5+,	r2	
 ac6:	73 75       	.word	0x7573;	????	Illegal as 2-op instr
 ac8:	6c 74       	subc.b	@r4,	r12	
 aca:	2f 6d       	addc	@r13,	r15	
 acc:	73 70       	.word	0x7073;	????	Illegal as 2-op instr
 ace:	34 33       	jn	$-406    	;abs 0x938
 ad0:	30 2f       	jc	$-414    	;abs 0x932
 ad2:	6c 69       	addc.b	@r9,	r12	
 ad4:	62 67       	addc.b	@r7,	r2	
 ad6:	63 63       	.word	0x6363;	????	Illegal as 2-op instr
 ad8:	00 47       	br	r7		
 ada:	4e 55       	add.b	r5,	r14	
 adc:	20 41       	br	@r1		
 ade:	53 20       	jnz	$+168    	;abs 0xb86
 ae0:	32 2e       	jc	$-922    	;abs 0x746
 ae2:	32 31       	jn	$+614    	;abs 0xd48
 ae4:	2e 31       	jn	$+606    	;abs 0xd42
 ae6:	00 01       	.word	0x0100;	????	
 ae8:	80 ca 00 00 	bic	r10,	0(r0)	;PC rel. 0x0aea
 aec:	00 02       	.word	0x0200;	????	
 aee:	00 89       	sub	r9,	r0	
 af0:	03 00       	.word	0x0003;	????	
 af2:	00 02       	.word	0x0200;	????	
 af4:	01 e8       	xor	r8,	r1	
 af6:	04 00       	.word	0x0004;	????	
 af8:	00 00       	.word	0x0000;	????	
 afa:	c0 0c       	.word	0x0cc0;	????	
 afc:	c0 2f       	jc	$-126    	;abs 0xa7e
 afe:	62 75       	subc.b	@r5,	r2	
 b00:	69 6c       	addc.b	@r12,	r9	
 b02:	64 2f       	jc	$-310    	;abs 0x9cc
 b04:	67 63       	addc.b	#2,	r7	;r3 As==10
 b06:	63 2d       	jc	$+712    	;abs 0xdce
 b08:	6d 73       	subc.b	#2,	r13	;r3 As==10
 b0a:	70 34       	jge	$+226    	;abs 0xbec
 b0c:	33 30       	jn	$+104    	;abs 0xb74
 b0e:	2d 52       	add	#4,	r13	;r2 As==10
 b10:	32 61       	addc	@r1+,	r2	
 b12:	38 4e       	mov	@r14+,	r8	
 b14:	33 2f       	jc	$-408    	;abs 0x97c
 b16:	67 63       	addc.b	#2,	r7	;r3 As==10
 b18:	63 2d       	jc	$+712    	;abs 0xde0
 b1a:	6d 73       	subc.b	#2,	r13	;r3 As==10
 b1c:	70 34       	jge	$+226    	;abs 0xbfe
 b1e:	33 30       	jn	$+104    	;abs 0xb86
 b20:	2d 34       	jge	$+92     	;abs 0xb7c
 b22:	2e 36       	jge	$-930    	;abs 0x780
 b24:	2e 33       	jn	$-418    	;abs 0x982
 b26:	7e 6d       	addc.b	@r13+,	r14	
 b28:	73 70       	.word	0x7073;	????	Illegal as 2-op instr
 b2a:	67 63       	addc.b	#2,	r7	;r3 As==10
 b2c:	63 2d       	jc	$+712    	;abs 0xdf4
 b2e:	32 30       	jn	$+102    	;abs 0xb94
 b30:	31 32       	jn	$-924    	;abs 0x794
 b32:	30 34       	jge	$+98     	;abs 0xb94
 b34:	30 36       	jge	$-926    	;abs 0x796
 b36:	2f 2e       	jc	$-928    	;abs 0x796
 b38:	2f 67       	addc	@r7,	r15	
 b3a:	63 63       	.word	0x6363;	????	Illegal as 2-op instr
 b3c:	2d 34       	jge	$+92     	;abs 0xb98
 b3e:	2e 36       	jge	$-930    	;abs 0x79c
 b40:	2e 33       	jn	$-418    	;abs 0x99e
 b42:	2f 67       	addc	@r7,	r15	
 b44:	63 63       	.word	0x6363;	????	Illegal as 2-op instr
 b46:	2f 63       	addc	#2,	r15	;r3 As==10
 b48:	6f 6e       	addc.b	@r14,	r15	
 b4a:	66 69       	addc.b	@r9,	r6	
 b4c:	67 2f       	jc	$-304    	;abs 0xa1c
 b4e:	6d 73       	subc.b	#2,	r13	;r3 As==10
 b50:	70 34       	jge	$+226    	;abs 0xc32
 b52:	33 30       	jn	$+104    	;abs 0xbba
 b54:	2f 63       	addc	#2,	r15	;r3 As==10
 b56:	72 74       	subc.b	@r4+,	r2	
 b58:	30 2e       	jc	$-926    	;abs 0x7ba
 b5a:	53 00       	.word	0x0053;	????	
 b5c:	2f 62       	addc	#4,	r15	;r2 As==10
 b5e:	75 69       	addc.b	@r9+,	r5	
 b60:	6c 64       	addc.b	@r4,	r12	
 b62:	2f 67       	addc	@r7,	r15	
 b64:	63 63       	.word	0x6363;	????	Illegal as 2-op instr
 b66:	2d 6d       	addc	@r13,	r13	
 b68:	73 70       	.word	0x7073;	????	Illegal as 2-op instr
 b6a:	34 33       	jn	$-406    	;abs 0x9d4
 b6c:	30 2d       	jc	$+610    	;abs 0xdce
 b6e:	52 32       	jn	$-858    	;abs 0x814
 b70:	61 38       	jl	$+196    	;abs 0xc34
 b72:	4e 33       	jn	$-354    	;abs 0xa10
 b74:	2f 67       	addc	@r7,	r15	
 b76:	63 63       	.word	0x6363;	????	Illegal as 2-op instr
 b78:	2d 6d       	addc	@r13,	r13	
 b7a:	73 70       	.word	0x7073;	????	Illegal as 2-op instr
 b7c:	34 33       	jn	$-406    	;abs 0x9e6
 b7e:	30 2d       	jc	$+610    	;abs 0xde0
 b80:	34 2e       	jc	$-918    	;abs 0x7ea
 b82:	36 2e       	jc	$-914    	;abs 0x7f0
 b84:	33 7e       	.word	0x7e33;	????	Illegal as 2-op instr
 b86:	6d 73       	subc.b	#2,	r13	;r3 As==10
 b88:	70 67       	addc.b	@r7+,	r0	
 b8a:	63 63       	.word	0x6363;	????	Illegal as 2-op instr
 b8c:	2d 32       	jn	$-932    	;abs 0x7e8
 b8e:	30 31       	jn	$+610    	;abs 0xdf0
 b90:	32 30       	jn	$+102    	;abs 0xbf6
 b92:	34 30       	jn	$+106    	;abs 0xbfc
 b94:	36 2f       	jc	$-402    	;abs 0xa02
 b96:	62 75       	subc.b	@r5,	r2	
 b98:	69 6c       	addc.b	@r12,	r9	
 b9a:	64 2d       	jc	$+714    	;abs 0xe64
 b9c:	72 65       	addc.b	@r5+,	r2	
 b9e:	73 75       	.word	0x7573;	????	Illegal as 2-op instr
 ba0:	6c 74       	subc.b	@r4,	r12	
 ba2:	2f 67       	addc	@r7,	r15	
 ba4:	63 63       	.word	0x6363;	????	Illegal as 2-op instr
 ba6:	00 47       	br	r7		
 ba8:	4e 55       	add.b	r5,	r14	
 baa:	20 41       	br	@r1		
 bac:	53 20       	jnz	$+168    	;abs 0xc54
 bae:	32 2e       	jc	$-922    	;abs 0x814
 bb0:	32 31       	jn	$+614    	;abs 0xe16
 bb2:	2e 31       	jn	$+606    	;abs 0xe10
 bb4:	00 01       	.word	0x0100;	????	
 bb6:	80 ca 00 00 	bic	r10,	0(r0)	;PC rel. 0x0bb8
 bba:	00 02       	.word	0x0200;	????	
 bbc:	00 9d       	cmp	r13,	r0	
 bbe:	03 00       	.word	0x0003;	????	
 bc0:	00 02       	.word	0x0200;	????	
 bc2:	01 77       	subc	r7,	r1	
 bc4:	05 00       	.word	0x0005;	????	
 bc6:	00 0c       	.word	0x0c00;	????	
 bc8:	c0 10       	.word	0x10c0;	????	
 bca:	c0 2f       	jc	$-126    	;abs 0xb4c
 bcc:	62 75       	subc.b	@r5,	r2	
 bce:	69 6c       	addc.b	@r12,	r9	
 bd0:	64 2f       	jc	$-310    	;abs 0xa9a
 bd2:	67 63       	addc.b	#2,	r7	;r3 As==10
 bd4:	63 2d       	jc	$+712    	;abs 0xe9c
 bd6:	6d 73       	subc.b	#2,	r13	;r3 As==10
 bd8:	70 34       	jge	$+226    	;abs 0xcba
 bda:	33 30       	jn	$+104    	;abs 0xc42
 bdc:	2d 52       	add	#4,	r13	;r2 As==10
 bde:	32 61       	addc	@r1+,	r2	
 be0:	38 4e       	mov	@r14+,	r8	
 be2:	33 2f       	jc	$-408    	;abs 0xa4a
 be4:	67 63       	addc.b	#2,	r7	;r3 As==10
 be6:	63 2d       	jc	$+712    	;abs 0xeae
 be8:	6d 73       	subc.b	#2,	r13	;r3 As==10
 bea:	70 34       	jge	$+226    	;abs 0xccc
 bec:	33 30       	jn	$+104    	;abs 0xc54
 bee:	2d 34       	jge	$+92     	;abs 0xc4a
 bf0:	2e 36       	jge	$-930    	;abs 0x84e
 bf2:	2e 33       	jn	$-418    	;abs 0xa50
 bf4:	7e 6d       	addc.b	@r13+,	r14	
 bf6:	73 70       	.word	0x7073;	????	Illegal as 2-op instr
 bf8:	67 63       	addc.b	#2,	r7	;r3 As==10
 bfa:	63 2d       	jc	$+712    	;abs 0xec2
 bfc:	32 30       	jn	$+102    	;abs 0xc62
 bfe:	31 32       	jn	$-924    	;abs 0x862
 c00:	30 34       	jge	$+98     	;abs 0xc62
 c02:	30 36       	jge	$-926    	;abs 0x864
 c04:	2f 2e       	jc	$-928    	;abs 0x864
 c06:	2f 67       	addc	@r7,	r15	
 c08:	63 63       	.word	0x6363;	????	Illegal as 2-op instr
 c0a:	2d 34       	jge	$+92     	;abs 0xc66
 c0c:	2e 36       	jge	$-930    	;abs 0x86a
 c0e:	2e 33       	jn	$-418    	;abs 0xa6c
 c10:	2f 67       	addc	@r7,	r15	
 c12:	63 63       	.word	0x6363;	????	Illegal as 2-op instr
 c14:	2f 63       	addc	#2,	r15	;r3 As==10
 c16:	6f 6e       	addc.b	@r14,	r15	
 c18:	66 69       	addc.b	@r9,	r6	
 c1a:	67 2f       	jc	$-304    	;abs 0xaea
 c1c:	6d 73       	subc.b	#2,	r13	;r3 As==10
 c1e:	70 34       	jge	$+226    	;abs 0xd00
 c20:	33 30       	jn	$+104    	;abs 0xc88
 c22:	2f 63       	addc	#2,	r15	;r3 As==10
 c24:	72 74       	subc.b	@r4+,	r2	
 c26:	30 2e       	jc	$-926    	;abs 0x888
 c28:	53 00       	.word	0x0053;	????	
 c2a:	2f 62       	addc	#4,	r15	;r2 As==10
 c2c:	75 69       	addc.b	@r9+,	r5	
 c2e:	6c 64       	addc.b	@r4,	r12	
 c30:	2f 67       	addc	@r7,	r15	
 c32:	63 63       	.word	0x6363;	????	Illegal as 2-op instr
 c34:	2d 6d       	addc	@r13,	r13	
 c36:	73 70       	.word	0x7073;	????	Illegal as 2-op instr
 c38:	34 33       	jn	$-406    	;abs 0xaa2
 c3a:	30 2d       	jc	$+610    	;abs 0xe9c
 c3c:	52 32       	jn	$-858    	;abs 0x8e2
 c3e:	61 38       	jl	$+196    	;abs 0xd02
 c40:	4e 33       	jn	$-354    	;abs 0xade
 c42:	2f 67       	addc	@r7,	r15	
 c44:	63 63       	.word	0x6363;	????	Illegal as 2-op instr
 c46:	2d 6d       	addc	@r13,	r13	
 c48:	73 70       	.word	0x7073;	????	Illegal as 2-op instr
 c4a:	34 33       	jn	$-406    	;abs 0xab4
 c4c:	30 2d       	jc	$+610    	;abs 0xeae
 c4e:	34 2e       	jc	$-918    	;abs 0x8b8
 c50:	36 2e       	jc	$-914    	;abs 0x8be
 c52:	33 7e       	.word	0x7e33;	????	Illegal as 2-op instr
 c54:	6d 73       	subc.b	#2,	r13	;r3 As==10
 c56:	70 67       	addc.b	@r7+,	r0	
 c58:	63 63       	.word	0x6363;	????	Illegal as 2-op instr
 c5a:	2d 32       	jn	$-932    	;abs 0x8b6
 c5c:	30 31       	jn	$+610    	;abs 0xebe
 c5e:	32 30       	jn	$+102    	;abs 0xcc4
 c60:	34 30       	jn	$+106    	;abs 0xcca
 c62:	36 2f       	jc	$-402    	;abs 0xad0
 c64:	62 75       	subc.b	@r5,	r2	
 c66:	69 6c       	addc.b	@r12,	r9	
 c68:	64 2d       	jc	$+714    	;abs 0xf32
 c6a:	72 65       	addc.b	@r5+,	r2	
 c6c:	73 75       	.word	0x7573;	????	Illegal as 2-op instr
 c6e:	6c 74       	subc.b	@r4,	r12	
 c70:	2f 67       	addc	@r7,	r15	
 c72:	63 63       	.word	0x6363;	????	Illegal as 2-op instr
 c74:	00 47       	br	r7		
 c76:	4e 55       	add.b	r5,	r14	
 c78:	20 41       	br	@r1		
 c7a:	53 20       	jnz	$+168    	;abs 0xd22
 c7c:	32 2e       	jc	$-922    	;abs 0x8e2
 c7e:	32 31       	jn	$+614    	;abs 0xee4
 c80:	2e 31       	jn	$+606    	;abs 0xede
 c82:	00 01       	.word	0x0100;	????	
 c84:	80 ca 00 00 	bic	r10,	0(r0)	;PC rel. 0x0c86
 c88:	00 02       	.word	0x0200;	????	
 c8a:	00 b1       	bit	r1,	r0	
 c8c:	03 00       	.word	0x0003;	????	
 c8e:	00 02       	.word	0x0200;	????	
 c90:	01 04       	.word	0x0401;	????	
 c92:	06 00       	.word	0x0006;	????	
 c94:	00 10       	rrc	r0		
 c96:	c0 28       	jnc	$+386    	;abs 0xe18
 c98:	c0 2f       	jc	$-126    	;abs 0xc1a
 c9a:	62 75       	subc.b	@r5,	r2	
 c9c:	69 6c       	addc.b	@r12,	r9	
 c9e:	64 2f       	jc	$-310    	;abs 0xb68
 ca0:	67 63       	addc.b	#2,	r7	;r3 As==10
 ca2:	63 2d       	jc	$+712    	;abs 0xf6a
 ca4:	6d 73       	subc.b	#2,	r13	;r3 As==10
 ca6:	70 34       	jge	$+226    	;abs 0xd88
 ca8:	33 30       	jn	$+104    	;abs 0xd10
 caa:	2d 52       	add	#4,	r13	;r2 As==10
 cac:	32 61       	addc	@r1+,	r2	
 cae:	38 4e       	mov	@r14+,	r8	
 cb0:	33 2f       	jc	$-408    	;abs 0xb18
 cb2:	67 63       	addc.b	#2,	r7	;r3 As==10
 cb4:	63 2d       	jc	$+712    	;abs 0xf7c
 cb6:	6d 73       	subc.b	#2,	r13	;r3 As==10
 cb8:	70 34       	jge	$+226    	;abs 0xd9a
 cba:	33 30       	jn	$+104    	;abs 0xd22
 cbc:	2d 34       	jge	$+92     	;abs 0xd18
 cbe:	2e 36       	jge	$-930    	;abs 0x91c
 cc0:	2e 33       	jn	$-418    	;abs 0xb1e
 cc2:	7e 6d       	addc.b	@r13+,	r14	
 cc4:	73 70       	.word	0x7073;	????	Illegal as 2-op instr
 cc6:	67 63       	addc.b	#2,	r7	;r3 As==10
 cc8:	63 2d       	jc	$+712    	;abs 0xf90
 cca:	32 30       	jn	$+102    	;abs 0xd30
 ccc:	31 32       	jn	$-924    	;abs 0x930
 cce:	30 34       	jge	$+98     	;abs 0xd30
 cd0:	30 36       	jge	$-926    	;abs 0x932
 cd2:	2f 2e       	jc	$-928    	;abs 0x932
 cd4:	2f 67       	addc	@r7,	r15	
 cd6:	63 63       	.word	0x6363;	????	Illegal as 2-op instr
 cd8:	2d 34       	jge	$+92     	;abs 0xd34
 cda:	2e 36       	jge	$-930    	;abs 0x938
 cdc:	2e 33       	jn	$-418    	;abs 0xb3a
 cde:	2f 67       	addc	@r7,	r15	
 ce0:	63 63       	.word	0x6363;	????	Illegal as 2-op instr
 ce2:	2f 63       	addc	#2,	r15	;r3 As==10
 ce4:	6f 6e       	addc.b	@r14,	r15	
 ce6:	66 69       	addc.b	@r9,	r6	
 ce8:	67 2f       	jc	$-304    	;abs 0xbb8
 cea:	6d 73       	subc.b	#2,	r13	;r3 As==10
 cec:	70 34       	jge	$+226    	;abs 0xdce
 cee:	33 30       	jn	$+104    	;abs 0xd56
 cf0:	2f 63       	addc	#2,	r15	;r3 As==10
 cf2:	72 74       	subc.b	@r4+,	r2	
 cf4:	30 2e       	jc	$-926    	;abs 0x956
 cf6:	53 00       	.word	0x0053;	????	
 cf8:	2f 62       	addc	#4,	r15	;r2 As==10
 cfa:	75 69       	addc.b	@r9+,	r5	
 cfc:	6c 64       	addc.b	@r4,	r12	
 cfe:	2f 67       	addc	@r7,	r15	
 d00:	63 63       	.word	0x6363;	????	Illegal as 2-op instr
 d02:	2d 6d       	addc	@r13,	r13	
 d04:	73 70       	.word	0x7073;	????	Illegal as 2-op instr
 d06:	34 33       	jn	$-406    	;abs 0xb70
 d08:	30 2d       	jc	$+610    	;abs 0xf6a
 d0a:	52 32       	jn	$-858    	;abs 0x9b0
 d0c:	61 38       	jl	$+196    	;abs 0xdd0
 d0e:	4e 33       	jn	$-354    	;abs 0xbac
 d10:	2f 67       	addc	@r7,	r15	
 d12:	63 63       	.word	0x6363;	????	Illegal as 2-op instr
 d14:	2d 6d       	addc	@r13,	r13	
 d16:	73 70       	.word	0x7073;	????	Illegal as 2-op instr
 d18:	34 33       	jn	$-406    	;abs 0xb82
 d1a:	30 2d       	jc	$+610    	;abs 0xf7c
 d1c:	34 2e       	jc	$-918    	;abs 0x986
 d1e:	36 2e       	jc	$-914    	;abs 0x98c
 d20:	33 7e       	.word	0x7e33;	????	Illegal as 2-op instr
 d22:	6d 73       	subc.b	#2,	r13	;r3 As==10
 d24:	70 67       	addc.b	@r7+,	r0	
 d26:	63 63       	.word	0x6363;	????	Illegal as 2-op instr
 d28:	2d 32       	jn	$-932    	;abs 0x984
 d2a:	30 31       	jn	$+610    	;abs 0xf8c
 d2c:	32 30       	jn	$+102    	;abs 0xd92
 d2e:	34 30       	jn	$+106    	;abs 0xd98
 d30:	36 2f       	jc	$-402    	;abs 0xb9e
 d32:	62 75       	subc.b	@r5,	r2	
 d34:	69 6c       	addc.b	@r12,	r9	
 d36:	64 2d       	jc	$+714    	;abs 0x1000
 d38:	72 65       	addc.b	@r5+,	r2	
 d3a:	73 75       	.word	0x7573;	????	Illegal as 2-op instr
 d3c:	6c 74       	subc.b	@r4,	r12	
 d3e:	2f 67       	addc	@r7,	r15	
 d40:	63 63       	.word	0x6363;	????	Illegal as 2-op instr
 d42:	00 47       	br	r7		
 d44:	4e 55       	add.b	r5,	r14	
 d46:	20 41       	br	@r1		
 d48:	53 20       	jnz	$+168    	;abs 0xdf0
 d4a:	32 2e       	jc	$-922    	;abs 0x9b0
 d4c:	32 31       	jn	$+614    	;abs 0xfb2
 d4e:	2e 31       	jn	$+606    	;abs 0xfac
 d50:	00 01       	.word	0x0100;	????	
 d52:	80 ca 00 00 	bic	r10,	0(r0)	;PC rel. 0x0d54
 d56:	00 02       	.word	0x0200;	????	
 d58:	00 c5       	bic	r5,	r0	
 d5a:	03 00       	.word	0x0003;	????	
 d5c:	00 02       	.word	0x0200;	????	
 d5e:	01 97       	cmp	r7,	r1	
 d60:	06 00       	.word	0x0006;	????	
 d62:	00 28       	jnc	$+2      	;abs 0xd64
 d64:	c0 3e       	jmp	$-638    	;abs 0xae6
 d66:	c0 2f       	jc	$-126    	;abs 0xce8
 d68:	62 75       	subc.b	@r5,	r2	
 d6a:	69 6c       	addc.b	@r12,	r9	
 d6c:	64 2f       	jc	$-310    	;abs 0xc36
 d6e:	67 63       	addc.b	#2,	r7	;r3 As==10
 d70:	63 2d       	jc	$+712    	;abs 0x1038
 d72:	6d 73       	subc.b	#2,	r13	;r3 As==10
 d74:	70 34       	jge	$+226    	;abs 0xe56
 d76:	33 30       	jn	$+104    	;abs 0xdde
 d78:	2d 52       	add	#4,	r13	;r2 As==10
 d7a:	32 61       	addc	@r1+,	r2	
 d7c:	38 4e       	mov	@r14+,	r8	
 d7e:	33 2f       	jc	$-408    	;abs 0xbe6
 d80:	67 63       	addc.b	#2,	r7	;r3 As==10
 d82:	63 2d       	jc	$+712    	;abs 0x104a
 d84:	6d 73       	subc.b	#2,	r13	;r3 As==10
 d86:	70 34       	jge	$+226    	;abs 0xe68
 d88:	33 30       	jn	$+104    	;abs 0xdf0
 d8a:	2d 34       	jge	$+92     	;abs 0xde6
 d8c:	2e 36       	jge	$-930    	;abs 0x9ea
 d8e:	2e 33       	jn	$-418    	;abs 0xbec
 d90:	7e 6d       	addc.b	@r13+,	r14	
 d92:	73 70       	.word	0x7073;	????	Illegal as 2-op instr
 d94:	67 63       	addc.b	#2,	r7	;r3 As==10
 d96:	63 2d       	jc	$+712    	;abs 0x105e
 d98:	32 30       	jn	$+102    	;abs 0xdfe
 d9a:	31 32       	jn	$-924    	;abs 0x9fe
 d9c:	30 34       	jge	$+98     	;abs 0xdfe
 d9e:	30 36       	jge	$-926    	;abs 0xa00
 da0:	2f 2e       	jc	$-928    	;abs 0xa00
 da2:	2f 67       	addc	@r7,	r15	
 da4:	63 63       	.word	0x6363;	????	Illegal as 2-op instr
 da6:	2d 34       	jge	$+92     	;abs 0xe02
 da8:	2e 36       	jge	$-930    	;abs 0xa06
 daa:	2e 33       	jn	$-418    	;abs 0xc08
 dac:	2f 67       	addc	@r7,	r15	
 dae:	63 63       	.word	0x6363;	????	Illegal as 2-op instr
 db0:	2f 63       	addc	#2,	r15	;r3 As==10
 db2:	6f 6e       	addc.b	@r14,	r15	
 db4:	66 69       	addc.b	@r9,	r6	
 db6:	67 2f       	jc	$-304    	;abs 0xc86
 db8:	6d 73       	subc.b	#2,	r13	;r3 As==10
 dba:	70 34       	jge	$+226    	;abs 0xe9c
 dbc:	33 30       	jn	$+104    	;abs 0xe24
 dbe:	2f 63       	addc	#2,	r15	;r3 As==10
 dc0:	72 74       	subc.b	@r4+,	r2	
 dc2:	30 2e       	jc	$-926    	;abs 0xa24
 dc4:	53 00       	.word	0x0053;	????	
 dc6:	2f 62       	addc	#4,	r15	;r2 As==10
 dc8:	75 69       	addc.b	@r9+,	r5	
 dca:	6c 64       	addc.b	@r4,	r12	
 dcc:	2f 67       	addc	@r7,	r15	
 dce:	63 63       	.word	0x6363;	????	Illegal as 2-op instr
 dd0:	2d 6d       	addc	@r13,	r13	
 dd2:	73 70       	.word	0x7073;	????	Illegal as 2-op instr
 dd4:	34 33       	jn	$-406    	;abs 0xc3e
 dd6:	30 2d       	jc	$+610    	;abs 0x1038
 dd8:	52 32       	jn	$-858    	;abs 0xa7e
 dda:	61 38       	jl	$+196    	;abs 0xe9e
 ddc:	4e 33       	jn	$-354    	;abs 0xc7a
 dde:	2f 67       	addc	@r7,	r15	
 de0:	63 63       	.word	0x6363;	????	Illegal as 2-op instr
 de2:	2d 6d       	addc	@r13,	r13	
 de4:	73 70       	.word	0x7073;	????	Illegal as 2-op instr
 de6:	34 33       	jn	$-406    	;abs 0xc50
 de8:	30 2d       	jc	$+610    	;abs 0x104a
 dea:	34 2e       	jc	$-918    	;abs 0xa54
 dec:	36 2e       	jc	$-914    	;abs 0xa5a
 dee:	33 7e       	.word	0x7e33;	????	Illegal as 2-op instr
 df0:	6d 73       	subc.b	#2,	r13	;r3 As==10
 df2:	70 67       	addc.b	@r7+,	r0	
 df4:	63 63       	.word	0x6363;	????	Illegal as 2-op instr
 df6:	2d 32       	jn	$-932    	;abs 0xa52
 df8:	30 31       	jn	$+610    	;abs 0x105a
 dfa:	32 30       	jn	$+102    	;abs 0xe60
 dfc:	34 30       	jn	$+106    	;abs 0xe66
 dfe:	36 2f       	jc	$-402    	;abs 0xc6c
 e00:	62 75       	subc.b	@r5,	r2	
 e02:	69 6c       	addc.b	@r12,	r9	
 e04:	64 2d       	jc	$+714    	;abs 0x10ce
 e06:	72 65       	addc.b	@r5+,	r2	
 e08:	73 75       	.word	0x7573;	????	Illegal as 2-op instr
 e0a:	6c 74       	subc.b	@r4,	r12	
 e0c:	2f 67       	addc	@r7,	r15	
 e0e:	63 63       	.word	0x6363;	????	Illegal as 2-op instr
 e10:	00 47       	br	r7		
 e12:	4e 55       	add.b	r5,	r14	
 e14:	20 41       	br	@r1		
 e16:	53 20       	jnz	$+168    	;abs 0xebe
 e18:	32 2e       	jc	$-922    	;abs 0xa7e
 e1a:	32 31       	jn	$+614    	;abs 0x1080
 e1c:	2e 31       	jn	$+606    	;abs 0x107a
 e1e:	00 01       	.word	0x0100;	????	
 e20:	80 ca 00 00 	bic	r10,	0(r0)	;PC rel. 0x0e22
 e24:	00 02       	.word	0x0200;	????	
 e26:	00 d9       	bis	r9,	r0	
 e28:	03 00       	.word	0x0003;	????	
 e2a:	00 02       	.word	0x0200;	????	
 e2c:	01 2a       	jnc	$-1020   	;abs 0xa30
 e2e:	07 00       	.word	0x0007;	????	
 e30:	00 34       	jge	$+2      	;abs 0xe32
 e32:	c1 3a       	jl	$-636    	;abs 0xbb6
 e34:	c1 2f       	jc	$-124    	;abs 0xdb8
 e36:	62 75       	subc.b	@r5,	r2	
 e38:	69 6c       	addc.b	@r12,	r9	
 e3a:	64 2f       	jc	$-310    	;abs 0xd04
 e3c:	67 63       	addc.b	#2,	r7	;r3 As==10
 e3e:	63 2d       	jc	$+712    	;abs 0x1106
 e40:	6d 73       	subc.b	#2,	r13	;r3 As==10
 e42:	70 34       	jge	$+226    	;abs 0xf24
 e44:	33 30       	jn	$+104    	;abs 0xeac
 e46:	2d 52       	add	#4,	r13	;r2 As==10
 e48:	32 61       	addc	@r1+,	r2	
 e4a:	38 4e       	mov	@r14+,	r8	
 e4c:	33 2f       	jc	$-408    	;abs 0xcb4
 e4e:	67 63       	addc.b	#2,	r7	;r3 As==10
 e50:	63 2d       	jc	$+712    	;abs 0x1118
 e52:	6d 73       	subc.b	#2,	r13	;r3 As==10
 e54:	70 34       	jge	$+226    	;abs 0xf36
 e56:	33 30       	jn	$+104    	;abs 0xebe
 e58:	2d 34       	jge	$+92     	;abs 0xeb4
 e5a:	2e 36       	jge	$-930    	;abs 0xab8
 e5c:	2e 33       	jn	$-418    	;abs 0xcba
 e5e:	7e 6d       	addc.b	@r13+,	r14	
 e60:	73 70       	.word	0x7073;	????	Illegal as 2-op instr
 e62:	67 63       	addc.b	#2,	r7	;r3 As==10
 e64:	63 2d       	jc	$+712    	;abs 0x112c
 e66:	32 30       	jn	$+102    	;abs 0xecc
 e68:	31 32       	jn	$-924    	;abs 0xacc
 e6a:	30 34       	jge	$+98     	;abs 0xecc
 e6c:	30 36       	jge	$-926    	;abs 0xace
 e6e:	2f 2e       	jc	$-928    	;abs 0xace
 e70:	2f 67       	addc	@r7,	r15	
 e72:	63 63       	.word	0x6363;	????	Illegal as 2-op instr
 e74:	2d 34       	jge	$+92     	;abs 0xed0
 e76:	2e 36       	jge	$-930    	;abs 0xad4
 e78:	2e 33       	jn	$-418    	;abs 0xcd6
 e7a:	2f 67       	addc	@r7,	r15	
 e7c:	63 63       	.word	0x6363;	????	Illegal as 2-op instr
 e7e:	2f 63       	addc	#2,	r15	;r3 As==10
 e80:	6f 6e       	addc.b	@r14,	r15	
 e82:	66 69       	addc.b	@r9,	r6	
 e84:	67 2f       	jc	$-304    	;abs 0xd54
 e86:	6d 73       	subc.b	#2,	r13	;r3 As==10
 e88:	70 34       	jge	$+226    	;abs 0xf6a
 e8a:	33 30       	jn	$+104    	;abs 0xef2
 e8c:	2f 63       	addc	#2,	r15	;r3 As==10
 e8e:	72 74       	subc.b	@r4+,	r2	
 e90:	30 2e       	jc	$-926    	;abs 0xaf2
 e92:	53 00       	.word	0x0053;	????	
 e94:	2f 62       	addc	#4,	r15	;r2 As==10
 e96:	75 69       	addc.b	@r9+,	r5	
 e98:	6c 64       	addc.b	@r4,	r12	
 e9a:	2f 67       	addc	@r7,	r15	
 e9c:	63 63       	.word	0x6363;	????	Illegal as 2-op instr
 e9e:	2d 6d       	addc	@r13,	r13	
 ea0:	73 70       	.word	0x7073;	????	Illegal as 2-op instr
 ea2:	34 33       	jn	$-406    	;abs 0xd0c
 ea4:	30 2d       	jc	$+610    	;abs 0x1106
 ea6:	52 32       	jn	$-858    	;abs 0xb4c
 ea8:	61 38       	jl	$+196    	;abs 0xf6c
 eaa:	4e 33       	jn	$-354    	;abs 0xd48
 eac:	2f 67       	addc	@r7,	r15	
 eae:	63 63       	.word	0x6363;	????	Illegal as 2-op instr
 eb0:	2d 6d       	addc	@r13,	r13	
 eb2:	73 70       	.word	0x7073;	????	Illegal as 2-op instr
 eb4:	34 33       	jn	$-406    	;abs 0xd1e
 eb6:	30 2d       	jc	$+610    	;abs 0x1118
 eb8:	34 2e       	jc	$-918    	;abs 0xb22
 eba:	36 2e       	jc	$-914    	;abs 0xb28
 ebc:	33 7e       	.word	0x7e33;	????	Illegal as 2-op instr
 ebe:	6d 73       	subc.b	#2,	r13	;r3 As==10
 ec0:	70 67       	addc.b	@r7+,	r0	
 ec2:	63 63       	.word	0x6363;	????	Illegal as 2-op instr
 ec4:	2d 32       	jn	$-932    	;abs 0xb20
 ec6:	30 31       	jn	$+610    	;abs 0x1128
 ec8:	32 30       	jn	$+102    	;abs 0xf2e
 eca:	34 30       	jn	$+106    	;abs 0xf34
 ecc:	36 2f       	jc	$-402    	;abs 0xd3a
 ece:	62 75       	subc.b	@r5,	r2	
 ed0:	69 6c       	addc.b	@r12,	r9	
 ed2:	64 2d       	jc	$+714    	;abs 0x119c
 ed4:	72 65       	addc.b	@r5+,	r2	
 ed6:	73 75       	.word	0x7573;	????	Illegal as 2-op instr
 ed8:	6c 74       	subc.b	@r4,	r12	
 eda:	2f 67       	addc	@r7,	r15	
 edc:	63 63       	.word	0x6363;	????	Illegal as 2-op instr
 ede:	00 47       	br	r7		
 ee0:	4e 55       	add.b	r5,	r14	
 ee2:	20 41       	br	@r1		
 ee4:	53 20       	jnz	$+168    	;abs 0xf8c
 ee6:	32 2e       	jc	$-922    	;abs 0xb4c
 ee8:	32 31       	jn	$+614    	;abs 0x114e
 eea:	2e 31       	jn	$+606    	;abs 0x1148
 eec:	00 01       	.word	0x0100;	????	
 eee:	80 ca 00 00 	bic	r10,	0(r0)	;PC rel. 0x0ef0
 ef2:	00 02       	.word	0x0200;	????	
 ef4:	00 ed       	xor	r13,	r0	
 ef6:	03 00       	.word	0x0003;	????	
 ef8:	00 02       	.word	0x0200;	????	
 efa:	01 b8       	bit	r8,	r1	
 efc:	07 00       	.word	0x0007;	????	
 efe:	00 ae       	dadd	r14,	r0	
 f00:	c8 b0 c8 2f 	bit.b	r0,	12232(r8);0x2fc8(r8)
 f04:	62 75       	subc.b	@r5,	r2	
 f06:	69 6c       	addc.b	@r12,	r9	
 f08:	64 2f       	jc	$-310    	;abs 0xdd2
 f0a:	67 63       	addc.b	#2,	r7	;r3 As==10
 f0c:	63 2d       	jc	$+712    	;abs 0x11d4
 f0e:	6d 73       	subc.b	#2,	r13	;r3 As==10
 f10:	70 34       	jge	$+226    	;abs 0xff2
 f12:	33 30       	jn	$+104    	;abs 0xf7a
 f14:	2d 52       	add	#4,	r13	;r2 As==10
 f16:	32 61       	addc	@r1+,	r2	
 f18:	38 4e       	mov	@r14+,	r8	
 f1a:	33 2f       	jc	$-408    	;abs 0xd82
 f1c:	67 63       	addc.b	#2,	r7	;r3 As==10
 f1e:	63 2d       	jc	$+712    	;abs 0x11e6
 f20:	6d 73       	subc.b	#2,	r13	;r3 As==10
 f22:	70 34       	jge	$+226    	;abs 0x1004
 f24:	33 30       	jn	$+104    	;abs 0xf8c
 f26:	2d 34       	jge	$+92     	;abs 0xf82
 f28:	2e 36       	jge	$-930    	;abs 0xb86
 f2a:	2e 33       	jn	$-418    	;abs 0xd88
 f2c:	7e 6d       	addc.b	@r13+,	r14	
 f2e:	73 70       	.word	0x7073;	????	Illegal as 2-op instr
 f30:	67 63       	addc.b	#2,	r7	;r3 As==10
 f32:	63 2d       	jc	$+712    	;abs 0x11fa
 f34:	32 30       	jn	$+102    	;abs 0xf9a
 f36:	31 32       	jn	$-924    	;abs 0xb9a
 f38:	30 34       	jge	$+98     	;abs 0xf9a
 f3a:	30 36       	jge	$-926    	;abs 0xb9c
 f3c:	2f 2e       	jc	$-928    	;abs 0xb9c
 f3e:	2f 67       	addc	@r7,	r15	
 f40:	63 63       	.word	0x6363;	????	Illegal as 2-op instr
 f42:	2d 34       	jge	$+92     	;abs 0xf9e
 f44:	2e 36       	jge	$-930    	;abs 0xba2
 f46:	2e 33       	jn	$-418    	;abs 0xda4
 f48:	2f 67       	addc	@r7,	r15	
 f4a:	63 63       	.word	0x6363;	????	Illegal as 2-op instr
 f4c:	2f 63       	addc	#2,	r15	;r3 As==10
 f4e:	6f 6e       	addc.b	@r14,	r15	
 f50:	66 69       	addc.b	@r9,	r6	
 f52:	67 2f       	jc	$-304    	;abs 0xe22
 f54:	6d 73       	subc.b	#2,	r13	;r3 As==10
 f56:	70 34       	jge	$+226    	;abs 0x1038
 f58:	33 30       	jn	$+104    	;abs 0xfc0
 f5a:	2f 63       	addc	#2,	r15	;r3 As==10
 f5c:	72 74       	subc.b	@r4+,	r2	
 f5e:	30 2e       	jc	$-926    	;abs 0xbc0
 f60:	53 00       	.word	0x0053;	????	
 f62:	2f 62       	addc	#4,	r15	;r2 As==10
 f64:	75 69       	addc.b	@r9+,	r5	
 f66:	6c 64       	addc.b	@r4,	r12	
 f68:	2f 67       	addc	@r7,	r15	
 f6a:	63 63       	.word	0x6363;	????	Illegal as 2-op instr
 f6c:	2d 6d       	addc	@r13,	r13	
 f6e:	73 70       	.word	0x7073;	????	Illegal as 2-op instr
 f70:	34 33       	jn	$-406    	;abs 0xdda
 f72:	30 2d       	jc	$+610    	;abs 0x11d4
 f74:	52 32       	jn	$-858    	;abs 0xc1a
 f76:	61 38       	jl	$+196    	;abs 0x103a
 f78:	4e 33       	jn	$-354    	;abs 0xe16
 f7a:	2f 67       	addc	@r7,	r15	
 f7c:	63 63       	.word	0x6363;	????	Illegal as 2-op instr
 f7e:	2d 6d       	addc	@r13,	r13	
 f80:	73 70       	.word	0x7073;	????	Illegal as 2-op instr
 f82:	34 33       	jn	$-406    	;abs 0xdec
 f84:	30 2d       	jc	$+610    	;abs 0x11e6
 f86:	34 2e       	jc	$-918    	;abs 0xbf0
 f88:	36 2e       	jc	$-914    	;abs 0xbf6
 f8a:	33 7e       	.word	0x7e33;	????	Illegal as 2-op instr
 f8c:	6d 73       	subc.b	#2,	r13	;r3 As==10
 f8e:	70 67       	addc.b	@r7+,	r0	
 f90:	63 63       	.word	0x6363;	????	Illegal as 2-op instr
 f92:	2d 32       	jn	$-932    	;abs 0xbee
 f94:	30 31       	jn	$+610    	;abs 0x11f6
 f96:	32 30       	jn	$+102    	;abs 0xffc
 f98:	34 30       	jn	$+106    	;abs 0x1002
 f9a:	36 2f       	jc	$-402    	;abs 0xe08
 f9c:	62 75       	subc.b	@r5,	r2	
 f9e:	69 6c       	addc.b	@r12,	r9	
 fa0:	64 2d       	jc	$+714    	;abs 0x126a
 fa2:	72 65       	addc.b	@r5+,	r2	
 fa4:	73 75       	.word	0x7573;	????	Illegal as 2-op instr
 fa6:	6c 74       	subc.b	@r4,	r12	
 fa8:	2f 67       	addc	@r7,	r15	
 faa:	63 63       	.word	0x6363;	????	Illegal as 2-op instr
 fac:	00 47       	br	r7		
 fae:	4e 55       	add.b	r5,	r14	
 fb0:	20 41       	br	@r1		
 fb2:	53 20       	jnz	$+168    	;abs 0x105a
 fb4:	32 2e       	jc	$-922    	;abs 0xc1a
 fb6:	32 31       	jn	$+614    	;abs 0x121c
 fb8:	2e 31       	jn	$+606    	;abs 0x1216
 fba:	00 01       	.word	0x0100;	????	
 fbc:	80 00       	Address 0x0000000000000fbc is out of bounds.
Address 0x0000000000000fbe is out of bounds.
and.b	@r15+,	-1(r15)	;0xffff(r15)

Disassembly of section .debug_abbrev:

00000000 <.debug_abbrev>:
   0:	01 11       	rra	r1		
   2:	01 25       	jz	$+516    	;abs 0x206
   4:	0e 13       	reti			;return from interupt
   6:	0b 03       	.word	0x030b;	????	
   8:	0e 1b       	.word	0x1b0e;	????	
   a:	0e 11       	rra	r14		
   c:	01 52       	add	r2,	r1	
   e:	01 55       	add	r5,	r1	
  10:	06 10       	rrc	r6		
  12:	06 00       	.word	0x0006;	????	
  14:	00 02       	.word	0x0200;	????	
  16:	24 00       	.word	0x0024;	????	
  18:	0b 0b       	.word	0x0b0b;	????	
  1a:	3e 0b       	.word	0x0b3e;	????	
  1c:	03 0e       	.word	0x0e03;	????	
  1e:	00 00       	.word	0x0000;	????	
  20:	03 2e       	jc	$-1016   	;abs 0xfc28
  22:	00 3f       	jmp	$-510    	;abs 0xfe24
  24:	0c 03       	.word	0x030c;	????	
  26:	0e 3a       	jl	$-994    	;abs 0xfc44
  28:	0b 3b       	jl	$-488    	;abs 0xfe40
  2a:	0b 27       	jz	$-488    	;abs 0xfe42
  2c:	0c 49       	mov	r9,	r12	
  2e:	13 11       	rra	#1		;r3 As==01
  30:	01 12       	push	r1		
  32:	01 40       	mov	r0,	r1	
  34:	0a 00       	.word	0x000a;	????	
  36:	00 04       	.word	0x0400;	????	
  38:	24 00       	.word	0x0024;	????	
  3a:	0b 0b       	.word	0x0b0b;	????	
  3c:	3e 0b       	.word	0x0b3e;	????	
  3e:	03 08       	.word	0x0803;	????	
  40:	00 00       	.word	0x0000;	????	
  42:	05 2e       	jc	$-1012   	;abs 0xfc4e
  44:	00 3f       	jmp	$-510    	;abs 0xfe46
  46:	0c 03       	.word	0x030c;	????	
  48:	0e 3a       	jl	$-994    	;abs 0xfc66
  4a:	0b 3b       	jl	$-488    	;abs 0xfe62
  4c:	0b 27       	jz	$-488    	;abs 0xfe64
  4e:	0c 11       	rra	r12		
  50:	01 12       	push	r1		
  52:	01 40       	mov	r0,	r1	
  54:	06 00       	.word	0x0006;	????	
  56:	00 06       	.word	0x0600;	????	
  58:	2e 01       	.word	0x012e;	????	
  5a:	3f 0c       	.word	0x0c3f;	????	
  5c:	03 0e       	.word	0x0e03;	????	
  5e:	3a 0b       	.word	0x0b3a;	????	
  60:	3b 0b       	.word	0x0b3b;	????	
  62:	27 0c       	.word	0x0c27;	????	
  64:	11 01       	.word	0x0111;	????	
  66:	12 01       	.word	0x0112;	????	
  68:	40 06       	.word	0x0640;	????	
  6a:	01 13       	reti			;return from interupt
  6c:	00 00       	.word	0x0000;	????	
  6e:	07 0b       	.word	0x0b07;	????	
  70:	01 11       	rra	r1		
  72:	01 12       	push	r1		
  74:	01 00       	.word	0x0001;	????	
  76:	00 08       	.word	0x0800;	????	
  78:	34 00       	.word	0x0034;	????	
  7a:	03 08       	.word	0x0803;	????	
  7c:	3a 0b       	.word	0x0b3a;	????	
  7e:	3b 0b       	.word	0x0b3b;	????	
  80:	49 13       	.word	0x1349;	????	
  82:	02 0a       	.word	0x0a02;	????	
  84:	00 00       	.word	0x0000;	????	
  86:	09 34       	jge	$+20     	;abs 0x9a
  88:	00 03       	.word	0x0300;	????	
  8a:	0e 3a       	jl	$-994    	;abs 0xfca8
  8c:	0b 3b       	jl	$-488    	;abs 0xfea4
  8e:	0b 49       	mov	r9,	r11	
  90:	13 02       	.word	0x0213;	????	
  92:	0a 00       	.word	0x000a;	????	
  94:	00 0a       	.word	0x0a00;	????	
  96:	34 00       	.word	0x0034;	????	
  98:	03 0e       	.word	0x0e03;	????	
  9a:	3a 0b       	.word	0x0b3a;	????	
  9c:	3b 05       	.word	0x053b;	????	
  9e:	87 40 0e 49 	mov	r0,	18702(r7);0x490e(r7)
  a2:	13 3f       	jmp	$-472    	;abs 0xfeca
  a4:	0c 3c       	jmp	$+26     	;abs 0xbe
  a6:	0c 00       	.word	0x000c;	????	
  a8:	00 0b       	.word	0x0b00;	????	
  aa:	35 00       	.word	0x0035;	????	
  ac:	49 13       	.word	0x1349;	????	
  ae:	00 00       	.word	0x0000;	????	
  b0:	0c 26       	jz	$-998    	;abs 0xfcca
  b2:	00 49       	br	r9		
  b4:	13 00       	.word	0x0013;	????	
  b6:	00 0d       	.word	0x0d00;	????	
  b8:	01 01       	.word	0x0101;	????	
  ba:	49 13       	.word	0x1349;	????	
  bc:	01 13       	reti			;return from interupt
  be:	00 00       	.word	0x0000;	????	
  c0:	0e 21       	jnz	$+542    	;abs 0x2de
  c2:	00 49       	br	r9		
  c4:	13 2f       	jc	$-472    	;abs 0xfeec
  c6:	05 00       	.word	0x0005;	????	
  c8:	00 0f       	.word	0x0f00;	????	
  ca:	0f 00       	.word	0x000f;	????	
  cc:	0b 0b       	.word	0x0b0b;	????	
  ce:	49 13       	.word	0x1349;	????	
  d0:	00 00       	.word	0x0000;	????	
  d2:	10 34       	jge	$+34     	;abs 0xf4
  d4:	00 03       	.word	0x0300;	????	
  d6:	0e 3a       	jl	$-994    	;abs 0xfcf4
  d8:	0b 3b       	jl	$-488    	;abs 0xfef0
  da:	0b 49       	mov	r9,	r11	
  dc:	13 3f       	jmp	$-472    	;abs 0xff04
  de:	0c 02       	.word	0x020c;	????	
  e0:	0a 00       	.word	0x000a;	????	
  e2:	00 11       	rra	r0		
  e4:	21 00       	.word	0x0021;	????	
  e6:	49 13       	.word	0x1349;	????	
  e8:	2f 0b       	.word	0x0b2f;	????	
  ea:	00 00       	.word	0x0000;	????	
  ec:	00 01       	.word	0x0100;	????	
  ee:	11 01       	.word	0x0111;	????	
  f0:	25 0e       	.word	0x0e25;	????	
  f2:	13 0b       	.word	0x0b13;	????	
  f4:	03 0e       	.word	0x0e03;	????	
  f6:	1b 0e       	.word	0x0e1b;	????	
  f8:	11 01       	.word	0x0111;	????	
  fa:	12 01       	.word	0x0112;	????	
  fc:	10 06       	.word	0x0610;	????	
  fe:	00 00       	.word	0x0000;	????	
 100:	02 24       	jz	$+6      	;abs 0x106
 102:	00 0b       	.word	0x0b00;	????	
 104:	0b 3e       	jmp	$-1000   	;abs 0xfd1c
 106:	0b 03       	.word	0x030b;	????	
 108:	0e 00       	.word	0x000e;	????	
 10a:	00 03       	.word	0x0300;	????	
 10c:	2e 01       	.word	0x012e;	????	
 10e:	3f 0c       	.word	0x0c3f;	????	
 110:	03 0e       	.word	0x0e03;	????	
 112:	3a 0b       	.word	0x0b3a;	????	
 114:	3b 0b       	.word	0x0b3b;	????	
 116:	27 0c       	.word	0x0c27;	????	
 118:	11 01       	.word	0x0111;	????	
 11a:	12 01       	.word	0x0112;	????	
 11c:	40 06       	.word	0x0640;	????	
 11e:	01 13       	reti			;return from interupt
 120:	00 00       	.word	0x0000;	????	
 122:	04 05       	.word	0x0504;	????	
 124:	00 03       	.word	0x0300;	????	
 126:	0e 3a       	jl	$-994    	;abs 0xfd44
 128:	0b 3b       	jl	$-488    	;abs 0xff40
 12a:	0b 49       	mov	r9,	r11	
 12c:	13 02       	.word	0x0213;	????	
 12e:	0a 00       	.word	0x000a;	????	
 130:	00 05       	.word	0x0500;	????	
 132:	0f 00       	.word	0x000f;	????	
 134:	0b 0b       	.word	0x0b0b;	????	
 136:	49 13       	.word	0x1349;	????	
 138:	00 00       	.word	0x0000;	????	
 13a:	06 26       	jz	$-1010   	;abs 0xfd48
 13c:	00 49       	br	r9		
 13e:	13 00       	.word	0x0013;	????	
 140:	00 07       	.word	0x0700;	????	
 142:	35 00       	.word	0x0035;	????	
 144:	49 13       	.word	0x1349;	????	
 146:	00 00       	.word	0x0000;	????	
 148:	08 34       	jge	$+18     	;abs 0x15a
 14a:	00 03       	.word	0x0300;	????	
 14c:	0e 3a       	jl	$-994    	;abs 0xfd6a
 14e:	0b 3b       	jl	$-488    	;abs 0xff66
 150:	0b 87       	sub	r7,	r11	
 152:	40 0e       	.word	0x0e40;	????	
 154:	49 13       	.word	0x1349;	????	
 156:	3f 0c       	.word	0x0c3f;	????	
 158:	3c 0c       	.word	0x0c3c;	????	
 15a:	00 00       	.word	0x0000;	????	
 15c:	00 01       	.word	0x0100;	????	
 15e:	11 01       	.word	0x0111;	????	
 160:	25 0e       	.word	0x0e25;	????	
 162:	13 0b       	.word	0x0b13;	????	
 164:	03 0e       	.word	0x0e03;	????	
 166:	1b 0e       	.word	0x0e1b;	????	
 168:	11 01       	.word	0x0111;	????	
 16a:	12 01       	.word	0x0112;	????	
 16c:	10 06       	.word	0x0610;	????	
 16e:	00 00       	.word	0x0000;	????	
 170:	02 16       	.word	0x1602;	????	
 172:	00 03       	.word	0x0300;	????	
 174:	0e 3a       	jl	$-994    	;abs 0xfd92
 176:	0b 3b       	jl	$-488    	;abs 0xff8e
 178:	0b 49       	mov	r9,	r11	
 17a:	13 00       	.word	0x0013;	????	
 17c:	00 03       	.word	0x0300;	????	
 17e:	0f 00       	.word	0x000f;	????	
 180:	0b 0b       	.word	0x0b0b;	????	
 182:	03 0e       	.word	0x0e03;	????	
 184:	00 00       	.word	0x0000;	????	
 186:	04 2e       	jc	$-1014   	;abs 0xfd90
 188:	01 03       	.word	0x0301;	????	
 18a:	0e 3a       	jl	$-994    	;abs 0xfda8
 18c:	0b 3b       	jl	$-488    	;abs 0xffa4
 18e:	0b 27       	jz	$-488    	;abs 0xffa6
 190:	0c 11       	rra	r12		
 192:	01 12       	push	r1		
 194:	01 40       	mov	r0,	r1	
 196:	06 01       	.word	0x0106;	????	
 198:	13 00       	.word	0x0013;	????	
 19a:	00 05       	.word	0x0500;	????	
 19c:	05 00       	.word	0x0005;	????	
 19e:	03 08       	.word	0x0803;	????	
 1a0:	3a 0b       	.word	0x0b3a;	????	
 1a2:	3b 0b       	.word	0x0b3b;	????	
 1a4:	49 13       	.word	0x1349;	????	
 1a6:	02 06       	.word	0x0602;	????	
 1a8:	00 00       	.word	0x0000;	????	
 1aa:	06 34       	jge	$+14     	;abs 0x1b8
 1ac:	00 03       	.word	0x0300;	????	
 1ae:	08 3a       	jl	$-1006   	;abs 0xfdc0
 1b0:	0b 3b       	jl	$-488    	;abs 0xffc8
 1b2:	0b 49       	mov	r9,	r11	
 1b4:	13 02       	.word	0x0213;	????	
 1b6:	06 00       	.word	0x0006;	????	
 1b8:	00 07       	.word	0x0700;	????	
 1ba:	24 00       	.word	0x0024;	????	
 1bc:	0b 0b       	.word	0x0b0b;	????	
 1be:	3e 0b       	.word	0x0b3e;	????	
 1c0:	03 0e       	.word	0x0e03;	????	
 1c2:	00 00       	.word	0x0000;	????	
 1c4:	08 0f       	.word	0x0f08;	????	
 1c6:	00 0b       	.word	0x0b00;	????	
 1c8:	0b 49       	mov	r9,	r11	
 1ca:	13 00       	.word	0x0013;	????	
 1cc:	00 09       	.word	0x0900;	????	
 1ce:	26 00       	.word	0x0026;	????	
 1d0:	49 13       	.word	0x1349;	????	
 1d2:	00 00       	.word	0x0000;	????	
 1d4:	0a 2e       	jc	$-1002   	;abs 0xfdea
 1d6:	01 03       	.word	0x0301;	????	
 1d8:	0e 3a       	jl	$-994    	;abs 0xfdf6
 1da:	0b 3b       	jl	$-488    	;abs 0xfff2
 1dc:	0b 27       	jz	$-488    	;abs 0xfff4
 1de:	0c 11       	rra	r12		
 1e0:	01 12       	push	r1		
 1e2:	01 40       	mov	r0,	r1	
 1e4:	0a 01       	.word	0x010a;	????	
 1e6:	13 00       	.word	0x0013;	????	
 1e8:	00 0b       	.word	0x0b00;	????	
 1ea:	34 00       	.word	0x0034;	????	
 1ec:	03 08       	.word	0x0803;	????	
 1ee:	3a 0b       	.word	0x0b3a;	????	
 1f0:	3b 0b       	.word	0x0b3b;	????	
 1f2:	49 13       	.word	0x1349;	????	
 1f4:	02 0a       	.word	0x0a02;	????	
 1f6:	00 00       	.word	0x0000;	????	
 1f8:	0c 01       	.word	0x010c;	????	
 1fa:	01 49       	mov	r9,	r1	
 1fc:	13 01       	.word	0x0113;	????	
 1fe:	13 00       	.word	0x0013;	????	
 200:	00 0d       	.word	0x0d00;	????	
 202:	21 00       	.word	0x0021;	????	
 204:	49 13       	.word	0x1349;	????	
 206:	2f 0b       	.word	0x0b2f;	????	
 208:	00 00       	.word	0x0000;	????	
 20a:	0e 2e       	jc	$-994    	;abs 0xfe28
 20c:	01 3f       	jmp	$-508    	;abs 0x10
 20e:	0c 03       	.word	0x030c;	????	
 210:	0e 3a       	jl	$-994    	;abs 0xfe2e
 212:	0b 3b       	jl	$-488    	;abs 0x2a
 214:	0b 27       	jz	$-488    	;abs 0x2c
 216:	0c 11       	rra	r12		
 218:	01 12       	push	r1		
 21a:	01 40       	mov	r0,	r1	
 21c:	06 01       	.word	0x0106;	????	
 21e:	13 00       	.word	0x0013;	????	
 220:	00 0f       	.word	0x0f00;	????	
 222:	05 00       	.word	0x0005;	????	
 224:	03 0e       	.word	0x0e03;	????	
 226:	3a 0b       	.word	0x0b3a;	????	
 228:	3b 0b       	.word	0x0b3b;	????	
 22a:	49 13       	.word	0x1349;	????	
 22c:	02 06       	.word	0x0602;	????	
 22e:	00 00       	.word	0x0000;	????	
 230:	10 24       	jz	$+34     	;abs 0x252
 232:	00 0b       	.word	0x0b00;	????	
 234:	0b 3e       	jmp	$-1000   	;abs 0xfe4c
 236:	0b 03       	.word	0x030b;	????	
 238:	08 00       	.word	0x0008;	????	
 23a:	00 11       	rra	r0		
 23c:	34 00       	.word	0x0034;	????	
 23e:	03 0e       	.word	0x0e03;	????	
 240:	3a 0b       	.word	0x0b3a;	????	
 242:	3b 0b       	.word	0x0b3b;	????	
 244:	49 13       	.word	0x1349;	????	
 246:	02 0a       	.word	0x0a02;	????	
 248:	00 00       	.word	0x0000;	????	
 24a:	12 18       	.word	0x1812;	????	
 24c:	00 00       	.word	0x0000;	????	
 24e:	00 13       	reti			
 250:	0a 00       	.word	0x000a;	????	
 252:	03 0e       	.word	0x0e03;	????	
 254:	3a 0b       	.word	0x0b3a;	????	
 256:	3b 0b       	.word	0x0b3b;	????	
 258:	11 01       	.word	0x0111;	????	
 25a:	00 00       	.word	0x0000;	????	
 25c:	00 01       	.word	0x0100;	????	
 25e:	11 01       	.word	0x0111;	????	
 260:	25 0e       	.word	0x0e25;	????	
 262:	13 0b       	.word	0x0b13;	????	
 264:	03 0e       	.word	0x0e03;	????	
 266:	1b 0e       	.word	0x0e1b;	????	
 268:	11 01       	.word	0x0111;	????	
 26a:	12 01       	.word	0x0112;	????	
 26c:	10 06       	.word	0x0610;	????	
 26e:	00 00       	.word	0x0000;	????	
 270:	02 2e       	jc	$-1018   	;abs 0xfe76
 272:	01 3f       	jmp	$-508    	;abs 0x76
 274:	0c 03       	.word	0x030c;	????	
 276:	0e 3a       	jl	$-994    	;abs 0xfe94
 278:	0b 3b       	jl	$-488    	;abs 0x90
 27a:	0b 27       	jz	$-488    	;abs 0x92
 27c:	0c 11       	rra	r12		
 27e:	01 12       	push	r1		
 280:	01 40       	mov	r0,	r1	
 282:	0a 01       	.word	0x010a;	????	
 284:	13 00       	.word	0x0013;	????	
 286:	00 03       	.word	0x0300;	????	
 288:	05 00       	.word	0x0005;	????	
 28a:	03 08       	.word	0x0803;	????	
 28c:	3a 0b       	.word	0x0b3a;	????	
 28e:	3b 0b       	.word	0x0b3b;	????	
 290:	49 13       	.word	0x1349;	????	
 292:	02 06       	.word	0x0602;	????	
 294:	00 00       	.word	0x0000;	????	
 296:	04 24       	jz	$+10     	;abs 0x2a0
 298:	00 0b       	.word	0x0b00;	????	
 29a:	0b 3e       	jmp	$-1000   	;abs 0xfeb2
 29c:	0b 03       	.word	0x030b;	????	
 29e:	0e 00       	.word	0x000e;	????	
 2a0:	00 05       	.word	0x0500;	????	
 2a2:	2e 00       	.word	0x002e;	????	
 2a4:	3f 0c       	.word	0x0c3f;	????	
 2a6:	03 0e       	.word	0x0e03;	????	
 2a8:	3a 0b       	.word	0x0b3a;	????	
 2aa:	3b 0b       	.word	0x0b3b;	????	
 2ac:	49 13       	.word	0x1349;	????	
 2ae:	11 01       	.word	0x0111;	????	
 2b0:	12 01       	.word	0x0112;	????	
 2b2:	40 0a       	.word	0x0a40;	????	
 2b4:	00 00       	.word	0x0000;	????	
 2b6:	00 01       	.word	0x0100;	????	
 2b8:	11 01       	.word	0x0111;	????	
 2ba:	25 0e       	.word	0x0e25;	????	
 2bc:	13 0b       	.word	0x0b13;	????	
 2be:	03 0e       	.word	0x0e03;	????	
 2c0:	1b 0e       	.word	0x0e1b;	????	
 2c2:	11 01       	.word	0x0111;	????	
 2c4:	12 01       	.word	0x0112;	????	
 2c6:	10 06       	.word	0x0610;	????	
 2c8:	00 00       	.word	0x0000;	????	
 2ca:	02 24       	jz	$+6      	;abs 0x2d0
 2cc:	00 0b       	.word	0x0b00;	????	
 2ce:	0b 3e       	jmp	$-1000   	;abs 0xfee6
 2d0:	0b 03       	.word	0x030b;	????	
 2d2:	0e 00       	.word	0x000e;	????	
 2d4:	00 03       	.word	0x0300;	????	
 2d6:	24 00       	.word	0x0024;	????	
 2d8:	0b 0b       	.word	0x0b0b;	????	
 2da:	3e 0b       	.word	0x0b3e;	????	
 2dc:	03 08       	.word	0x0803;	????	
 2de:	00 00       	.word	0x0000;	????	
 2e0:	04 2e       	jc	$-1014   	;abs 0xfeea
 2e2:	01 3f       	jmp	$-508    	;abs 0xe6
 2e4:	0c 03       	.word	0x030c;	????	
 2e6:	0e 3a       	jl	$-994    	;abs 0xff04
 2e8:	0b 3b       	jl	$-488    	;abs 0x100
 2ea:	0b 27       	jz	$-488    	;abs 0x102
 2ec:	0c 11       	rra	r12		
 2ee:	01 12       	push	r1		
 2f0:	01 40       	mov	r0,	r1	
 2f2:	0a 01       	.word	0x010a;	????	
 2f4:	13 00       	.word	0x0013;	????	
 2f6:	00 05       	.word	0x0500;	????	
 2f8:	05 00       	.word	0x0005;	????	
 2fa:	03 0e       	.word	0x0e03;	????	
 2fc:	3a 0b       	.word	0x0b3a;	????	
 2fe:	3b 0b       	.word	0x0b3b;	????	
 300:	49 13       	.word	0x1349;	????	
 302:	02 0a       	.word	0x0a02;	????	
 304:	00 00       	.word	0x0000;	????	
 306:	06 05       	.word	0x0506;	????	
 308:	00 03       	.word	0x0300;	????	
 30a:	0e 3a       	jl	$-994    	;abs 0xff28
 30c:	0b 3b       	jl	$-488    	;abs 0x124
 30e:	0b 49       	mov	r9,	r11	
 310:	13 02       	.word	0x0213;	????	
 312:	06 00       	.word	0x0006;	????	
 314:	00 07       	.word	0x0700;	????	
 316:	2e 00       	.word	0x002e;	????	
 318:	3f 0c       	.word	0x0c3f;	????	
 31a:	03 0e       	.word	0x0e03;	????	
 31c:	3a 0b       	.word	0x0b3a;	????	
 31e:	3b 0b       	.word	0x0b3b;	????	
 320:	49 13       	.word	0x1349;	????	
 322:	11 01       	.word	0x0111;	????	
 324:	12 01       	.word	0x0112;	????	
 326:	40 0a       	.word	0x0a40;	????	
 328:	00 00       	.word	0x0000;	????	
 32a:	08 34       	jge	$+18     	;abs 0x33c
 32c:	00 03       	.word	0x0300;	????	
 32e:	0e 3a       	jl	$-994    	;abs 0xff4c
 330:	0b 3b       	jl	$-488    	;abs 0x148
 332:	0b 87       	sub	r7,	r11	
 334:	40 0e       	.word	0x0e40;	????	
 336:	49 13       	.word	0x1349;	????	
 338:	3f 0c       	.word	0x0c3f;	????	
 33a:	3c 0c       	.word	0x0c3c;	????	
 33c:	00 00       	.word	0x0000;	????	
 33e:	09 35       	jge	$+532    	;abs 0x552
 340:	00 49       	br	r9		
 342:	13 00       	.word	0x0013;	????	
 344:	00 0a       	.word	0x0a00;	????	
 346:	34 00       	.word	0x0034;	????	
 348:	03 0e       	.word	0x0e03;	????	
 34a:	3a 0b       	.word	0x0b3a;	????	
 34c:	3b 05       	.word	0x053b;	????	
 34e:	87 40 0e 49 	mov	r0,	18702(r7);0x490e(r7)
 352:	13 3f       	jmp	$-472    	;abs 0x17a
 354:	0c 3c       	jmp	$+26     	;abs 0x36e
 356:	0c 00       	.word	0x000c;	????	
 358:	00 0b       	.word	0x0b00;	????	
 35a:	26 00       	.word	0x0026;	????	
 35c:	49 13       	.word	0x1349;	????	
 35e:	00 00       	.word	0x0000;	????	
 360:	00 01       	.word	0x0100;	????	
 362:	11 00       	.word	0x0011;	????	
 364:	10 06       	.word	0x0610;	????	
 366:	11 01       	.word	0x0111;	????	
 368:	12 01       	.word	0x0112;	????	
 36a:	03 08       	.word	0x0803;	????	
 36c:	1b 08       	.word	0x081b;	????	
 36e:	25 08       	.word	0x0825;	????	
 370:	13 05       	.word	0x0513;	????	
 372:	00 00       	.word	0x0000;	????	
 374:	00 01       	.word	0x0100;	????	
 376:	11 00       	.word	0x0011;	????	
 378:	10 06       	.word	0x0610;	????	
 37a:	11 01       	.word	0x0111;	????	
 37c:	12 01       	.word	0x0112;	????	
 37e:	03 08       	.word	0x0803;	????	
 380:	1b 08       	.word	0x081b;	????	
 382:	25 08       	.word	0x0825;	????	
 384:	13 05       	.word	0x0513;	????	
 386:	00 00       	.word	0x0000;	????	
 388:	00 01       	.word	0x0100;	????	
 38a:	11 00       	.word	0x0011;	????	
 38c:	10 06       	.word	0x0610;	????	
 38e:	11 01       	.word	0x0111;	????	
 390:	12 01       	.word	0x0112;	????	
 392:	03 08       	.word	0x0803;	????	
 394:	1b 08       	.word	0x081b;	????	
 396:	25 08       	.word	0x0825;	????	
 398:	13 05       	.word	0x0513;	????	
 39a:	00 00       	.word	0x0000;	????	
 39c:	00 01       	.word	0x0100;	????	
 39e:	11 00       	.word	0x0011;	????	
 3a0:	10 06       	.word	0x0610;	????	
 3a2:	11 01       	.word	0x0111;	????	
 3a4:	12 01       	.word	0x0112;	????	
 3a6:	03 08       	.word	0x0803;	????	
 3a8:	1b 08       	.word	0x081b;	????	
 3aa:	25 08       	.word	0x0825;	????	
 3ac:	13 05       	.word	0x0513;	????	
 3ae:	00 00       	.word	0x0000;	????	
 3b0:	00 01       	.word	0x0100;	????	
 3b2:	11 00       	.word	0x0011;	????	
 3b4:	10 06       	.word	0x0610;	????	
 3b6:	11 01       	.word	0x0111;	????	
 3b8:	12 01       	.word	0x0112;	????	
 3ba:	03 08       	.word	0x0803;	????	
 3bc:	1b 08       	.word	0x081b;	????	
 3be:	25 08       	.word	0x0825;	????	
 3c0:	13 05       	.word	0x0513;	????	
 3c2:	00 00       	.word	0x0000;	????	
 3c4:	00 01       	.word	0x0100;	????	
 3c6:	11 00       	.word	0x0011;	????	
 3c8:	10 06       	.word	0x0610;	????	
 3ca:	11 01       	.word	0x0111;	????	
 3cc:	12 01       	.word	0x0112;	????	
 3ce:	03 08       	.word	0x0803;	????	
 3d0:	1b 08       	.word	0x081b;	????	
 3d2:	25 08       	.word	0x0825;	????	
 3d4:	13 05       	.word	0x0513;	????	
 3d6:	00 00       	.word	0x0000;	????	
 3d8:	00 01       	.word	0x0100;	????	
 3da:	11 00       	.word	0x0011;	????	
 3dc:	10 06       	.word	0x0610;	????	
 3de:	11 01       	.word	0x0111;	????	
 3e0:	12 01       	.word	0x0112;	????	
 3e2:	03 08       	.word	0x0803;	????	
 3e4:	1b 08       	.word	0x081b;	????	
 3e6:	25 08       	.word	0x0825;	????	
 3e8:	13 05       	.word	0x0513;	????	
 3ea:	00 00       	.word	0x0000;	????	
 3ec:	00 01       	.word	0x0100;	????	
 3ee:	11 00       	.word	0x0011;	????	
 3f0:	10 06       	.word	0x0610;	????	
 3f2:	11 01       	.word	0x0111;	????	
 3f4:	12 01       	.word	0x0112;	????	
 3f6:	03 08       	.word	0x0803;	????	
 3f8:	1b 08       	.word	0x081b;	????	
 3fa:	25 08       	.word	0x0825;	????	
 3fc:	13 05       	.word	0x0513;	????	
 3fe:	00 00       	.word	0x0000;	????	
	...

Disassembly of section .debug_line:

00000000 <.debug_line>:
   0:	f1 00       	.word	0x00f1;	????	
   2:	00 00       	.word	0x0000;	????	
   4:	02 00       	.word	0x0002;	????	
   6:	6d 00       	.word	0x006d;	????	
   8:	00 00       	.word	0x0000;	????	
   a:	01 01       	.word	0x0101;	????	
   c:	fb 0e       	.word	0x0efb;	????	
   e:	0d 00       	.word	0x000d;	????	
  10:	01 01       	.word	0x0101;	????	
  12:	01 01       	.word	0x0101;	????	
  14:	00 00       	.word	0x0000;	????	
  16:	00 01       	.word	0x0100;	????	
  18:	00 00       	.word	0x0000;	????	
  1a:	01 2f       	jc	$-508    	;abs 0xfe1e
  1c:	75 73       	subc.b	#-1,	r5	;r3 As==11
  1e:	72 2f       	jc	$-282    	;abs 0xff04
  20:	6c 69       	addc.b	@r9,	r12	
  22:	62 2f       	jc	$-314    	;abs 0xfee8
  24:	67 63       	addc.b	#2,	r7	;r3 As==10
  26:	63 2f       	jc	$-312    	;abs 0xfeee
  28:	6d 73       	subc.b	#2,	r13	;r3 As==10
  2a:	70 34       	jge	$+226    	;abs 0x10c
  2c:	33 30       	jn	$+104    	;abs 0x94
  2e:	2f 34       	jge	$+96     	;abs 0x8e
  30:	2e 36       	jge	$-930    	;abs 0xfc8e
  32:	2e 33       	jn	$-418    	;abs 0xfe90
  34:	2f 2e       	jc	$-928    	;abs 0xfc94
  36:	2e 2f       	jc	$-418    	;abs 0xfe94
  38:	2e 2e       	jc	$-930    	;abs 0xfc96
  3a:	2f 2e       	jc	$-928    	;abs 0xfc9a
  3c:	2e 2f       	jc	$-418    	;abs 0xfe9a
  3e:	2e 2e       	jc	$-930    	;abs 0xfc9c
  40:	2f 6d       	addc	@r13,	r15	
  42:	73 70       	.word	0x7073;	????	Illegal as 2-op instr
  44:	34 33       	jn	$-406    	;abs 0xfeae
  46:	30 2f       	jc	$-414    	;abs 0xfea8
  48:	69 6e       	addc.b	@r14,	r9	
  4a:	63 6c       	.word	0x6c63;	????	Illegal as 2-op instr
  4c:	75 64       	addc.b	@r4+,	r5	
  4e:	65 00       	.word	0x0065;	????	
  50:	00 61       	addc	r1,	r0	
  52:	35 2e       	jc	$-916    	;abs 0xfcbe
  54:	63 00       	.word	0x0063;	????	
  56:	00 00       	.word	0x0000;	????	
  58:	00 6d       	addc	r13,	r0	
  5a:	73 70       	.word	0x7073;	????	Illegal as 2-op instr
  5c:	34 33       	jn	$-406    	;abs 0xfec6
  5e:	30 67       	addc	@r7+,	r0	
  60:	32 35       	jge	$+614    	;abs 0x2c6
  62:	35 33       	jn	$-404    	;abs 0xfece
  64:	2e 68       	addc	@r8,	r14	
  66:	00 01       	.word	0x0100;	????	
  68:	00 00       	.word	0x0000;	????	
  6a:	63 6f       	.word	0x6f63;	????	Illegal as 2-op instr
  6c:	6c 6f       	addc.b	@r15,	r12	
  6e:	72 73       	subc.b	#-1,	r2	;r3 As==11
  70:	2e 68       	addc	@r8,	r14	
  72:	00 00       	.word	0x0000;	????	
  74:	00 00       	.word	0x0000;	????	
  76:	00 00       	.word	0x0000;	????	
  78:	03 02       	.word	0x0203;	????	
  7a:	3e c0 03 33 	bic	#13059,	r14	;#0x3303
  7e:	01 14       	.word	0x1401;	????	
  80:	67 83       	decd.b	r7		
  82:	84 83 bb be 	sub	#0,	-16709(r4);r3 As==00, 0xbebb(r4)
  86:	67 bc       	bit.b	@r12,	r7	
  88:	bb bd bb bd 	bit	@r13+,	-16965(r11);0xbdbb(r11)
  8c:	4b 4e       	mov.b	r14,	r11	
  8e:	67 67       	addc.b	@r7,	r7	
  90:	67 6a       	addc.b	@r10,	r7	
  92:	67 67       	addc.b	@r7,	r7	
  94:	69 67       	addc.b	@r7,	r9	
  96:	67 68       	addc.b	@r8,	r7	
  98:	bb 67 4b 67 	addc	@r7+,	26443(r11);0x674b(r11)
  9c:	bd 03       	.word	0x03bd;	????	
  9e:	0a ba       	bit	r10,	r10	
  a0:	4d 02       	.word	0x024d;	????	
  a2:	02 00       	.word	0x0002;	????	
  a4:	01 01       	.word	0x0101;	????	
  a6:	00 03       	.word	0x0300;	????	
  a8:	02 3e       	jmp	$-1018   	;abs 0xfcae
  aa:	c1 03       	.word	0x03c1;	????	
  ac:	f4 00       	.word	0x00f4;	????	
  ae:	01 03       	.word	0x0301;	????	
  b0:	09 01       	.word	0x0109;	????	
  b2:	86 bd 08 3f 	bit	r13,	16136(r6);0x3f08(r6)
  b6:	83 bb       	bit	r11,	#1	;r3 As==01
  b8:	d7 d7 d7 83 	bis.b	-31785(r7),-21240(r7);0x83d7(r7), 0xad08(r7)
  bc:	08 ad 
  be:	d7 d7 d8 bb 	bis.b	-17448(r7),-16737(r7);0xbbd8(r7), 0xbe9f(r7)
  c2:	9f be 
  c4:	9f 02       	.word	0x029f;	????	
  c6:	46 14       	.word	0x1446;	????	
  c8:	a2 bb a0 a0 	bit	@r11,	&0xa0a0	
  cc:	02 24       	jz	$+6      	;abs 0xd2
  ce:	13 02       	.word	0x0213;	????	
  d0:	24 13       	reti			;return from interupt
  d2:	02 24       	jz	$+6      	;abs 0xd8
  d4:	15 08       	.word	0x0815;	????	
  d6:	e7 08       	.word	0x08e7;	????	
  d8:	75 4d       	mov.b	@r13+,	r5	
  da:	da 84 83 bb 	sub.b	-17533(r4),-31869(r10);0xbb83(r4), 0x8383(r10)
  de:	83 83 
  e0:	bb 84 bb 6a 	sub	@r4+,	27323(r11);0x6abb(r11)
  e4:	9f f5 00 02 	and	512(r5),260(r15);0x0200(r5), 0x0104(r15)
  e8:	04 01 
  ea:	06 2e       	jc	$-1010   	;abs 0xfcf8
  ec:	06 9f       	cmp	r15,	r6	
  ee:	9f bb 02 0a 	bit	2562(r11),256(r15);0x0a02(r11), 0x0100(r15)
  f2:	00 01 
  f4:	01 89       	sub	r9,	r1	
  f6:	00 00       	.word	0x0000;	????	
  f8:	00 02       	.word	0x0200;	????	
  fa:	00 62       	addc	r2,	r0	
  fc:	00 00       	.word	0x0000;	????	
  fe:	00 01       	.word	0x0100;	????	
 100:	01 fb       	and	r11,	r1	
 102:	0e 0d       	.word	0x0d0e;	????	
 104:	00 01       	.word	0x0100;	????	
 106:	01 01       	.word	0x0101;	????	
 108:	01 00       	.word	0x0001;	????	
 10a:	00 00       	.word	0x0000;	????	
 10c:	01 00       	.word	0x0001;	????	
 10e:	00 01       	.word	0x0100;	????	
 110:	2f 75       	subc	@r5,	r15	
 112:	73 72       	.word	0x7273;	????	Illegal as 2-op instr
 114:	2f 6c       	addc	@r12,	r15	
 116:	69 62       	addc.b	#4,	r9	;r2 As==10
 118:	2f 67       	addc	@r7,	r15	
 11a:	63 63       	.word	0x6363;	????	Illegal as 2-op instr
 11c:	2f 6d       	addc	@r13,	r15	
 11e:	73 70       	.word	0x7073;	????	Illegal as 2-op instr
 120:	34 33       	jn	$-406    	;abs 0xff8a
 122:	30 2f       	jc	$-414    	;abs 0xff84
 124:	34 2e       	jc	$-918    	;abs 0xfd8e
 126:	36 2e       	jc	$-914    	;abs 0xfd94
 128:	33 2f       	jc	$-408    	;abs 0xff90
 12a:	2e 2e       	jc	$-930    	;abs 0xfd88
 12c:	2f 2e       	jc	$-928    	;abs 0xfd8c
 12e:	2e 2f       	jc	$-418    	;abs 0xff8c
 130:	2e 2e       	jc	$-930    	;abs 0xfd8e
 132:	2f 2e       	jc	$-928    	;abs 0xfd92
 134:	2e 2f       	jc	$-418    	;abs 0xff92
 136:	6d 73       	subc.b	#2,	r13	;r3 As==10
 138:	70 34       	jge	$+226    	;abs 0x21a
 13a:	33 30       	jn	$+104    	;abs 0x1a2
 13c:	2f 69       	addc	@r9,	r15	
 13e:	6e 63       	addc.b	#2,	r14	;r3 As==10
 140:	6c 75       	subc.b	@r5,	r12	
 142:	64 65       	addc.b	@r5,	r4	
 144:	00 00       	.word	0x0000;	????	
 146:	64 74       	subc.b	@r4,	r4	
 148:	63 2e       	jc	$-824    	;abs 0xfe10
 14a:	63 00       	.word	0x0063;	????	
 14c:	00 00       	.word	0x0000;	????	
 14e:	00 6d       	addc	r13,	r0	
 150:	73 70       	.word	0x7073;	????	Illegal as 2-op instr
 152:	34 33       	jn	$-406    	;abs 0xffbc
 154:	30 67       	addc	@r7+,	r0	
 156:	32 35       	jge	$+614    	;abs 0x3bc
 158:	35 33       	jn	$-404    	;abs 0xffc4
 15a:	2e 68       	addc	@r8,	r14	
 15c:	00 01       	.word	0x0100;	????	
 15e:	00 00       	.word	0x0000;	????	
 160:	00 00       	.word	0x0000;	????	
 162:	03 02       	.word	0x0203;	????	
 164:	dc c3 14 9f 	bic.b	#1,	-24812(r12);r3 As==01, 0x9f14(r12)
 168:	bb 4c 67 00 	mov	@r12+,	103(r11);0x0067(r11)
 16c:	02 04       	.word	0x0402;	????	
 16e:	01 06       	.word	0x0601;	????	
 170:	2e 06       	.word	0x062e;	????	
 172:	bb 4b 4b 83 	mov	@r11+,	-31925(r11);0x834b(r11)
 176:	bc a0 02 32 	dadd	#12802,	-24812(r12);#0x3202, 0x9f14(r12)
 17a:	14 9f 
 17c:	9f 02       	.word	0x029f;	????	
 17e:	04 00       	.word	0x0004;	????	
 180:	01 01       	.word	0x0101;	????	
 182:	07 01       	.word	0x0107;	????	
 184:	00 00       	.word	0x0000;	????	
 186:	02 00       	.word	0x0002;	????	
 188:	4c 00       	.word	0x004c;	????	
 18a:	00 00       	.word	0x0000;	????	
 18c:	01 01       	.word	0x0101;	????	
 18e:	fb 0e       	.word	0x0efb;	????	
 190:	0d 00       	.word	0x000d;	????	
 192:	01 01       	.word	0x0101;	????	
 194:	01 01       	.word	0x0101;	????	
 196:	00 00       	.word	0x0000;	????	
 198:	00 01       	.word	0x0100;	????	
 19a:	00 00       	.word	0x0000;	????	
 19c:	01 2f       	jc	$-508    	;abs 0xffa0
 19e:	75 73       	subc.b	#-1,	r5	;r3 As==11
 1a0:	72 2f       	jc	$-282    	;abs 0x86
 1a2:	6c 69       	addc.b	@r9,	r12	
 1a4:	62 2f       	jc	$-314    	;abs 0x6a
 1a6:	67 63       	addc.b	#2,	r7	;r3 As==10
 1a8:	63 2f       	jc	$-312    	;abs 0x70
 1aa:	6d 73       	subc.b	#2,	r13	;r3 As==10
 1ac:	70 34       	jge	$+226    	;abs 0x28e
 1ae:	33 30       	jn	$+104    	;abs 0x216
 1b0:	2f 34       	jge	$+96     	;abs 0x210
 1b2:	2e 36       	jge	$-930    	;abs 0xfe10
 1b4:	2e 33       	jn	$-418    	;abs 0x12
 1b6:	2f 69       	addc	@r9,	r15	
 1b8:	6e 63       	addc.b	#2,	r14	;r3 As==10
 1ba:	6c 75       	subc.b	@r5,	r12	
 1bc:	64 65       	addc.b	@r5,	r4	
 1be:	00 00       	.word	0x0000;	????	
 1c0:	63 6f       	.word	0x6f63;	????	Illegal as 2-op instr
 1c2:	6e 69       	addc.b	@r9,	r14	
 1c4:	6f 2e       	jc	$-800    	;abs 0xfea4
 1c6:	63 00       	.word	0x0063;	????	
 1c8:	00 00       	.word	0x0000;	????	
 1ca:	00 73       	sbc	r0		
 1cc:	74 64       	addc.b	@r4+,	r4	
 1ce:	61 72       	subc.b	#4,	r1	;r2 As==10
 1d0:	67 2e       	jc	$-816    	;abs 0xfea0
 1d2:	68 00       	.word	0x0068;	????	
 1d4:	01 00       	.word	0x0001;	????	
 1d6:	00 00       	.word	0x0000;	????	
 1d8:	00 03       	.word	0x0300;	????	
 1da:	02 7a       	subc	r10,	r2	
 1dc:	c4 03       	.word	0x03c4;	????	
 1de:	d9 00       	.word	0x00d9;	????	
 1e0:	01 f6       	and	r6,	r1	
 1e2:	00 02       	.word	0x0200;	????	
 1e4:	04 02       	.word	0x0204;	????	
 1e6:	9f 00       	.word	0x009f;	????	
 1e8:	02 04       	.word	0x0402;	????	
 1ea:	01 06       	.word	0x0601;	????	
 1ec:	2e 06       	.word	0x062e;	????	
 1ee:	bc 4b 4b 00 	mov	@r11+,	75(r12)	;0x004b(r12)
 1f2:	02 04       	.word	0x0402;	????	
 1f4:	02 06       	.word	0x0602;	????	
 1f6:	2e 00       	.word	0x002e;	????	
 1f8:	02 04       	.word	0x0402;	????	
 1fa:	01 66       	addc	r6,	r1	
 1fc:	06 bb       	bit	r11,	r6	
 1fe:	4b d8       	bis.b	r8,	r11	
 200:	83 03       	.word	0x0383;	????	
 202:	6c ba       	bit.b	@r10,	r12	
 204:	14 bb 03 42 	bit	16899(r11),r4	;0x4203(r11)
 208:	2e 4d       	mov	@r13,	r14	
 20a:	2f 00       	.word	0x002f;	????	
 20c:	02 04       	.word	0x0402;	????	
 20e:	01 49       	mov	r9,	r1	
 210:	69 4d       	mov.b	@r13,	r9	
 212:	bf f3 83 00 	and	#-1,	131(r15);r3 As==11, 0x0083(r15)
 216:	02 04       	.word	0x0402;	????	
 218:	01 32       	jn	$-1020   	;abs 0xfe1c
 21a:	00 02       	.word	0x0200;	????	
 21c:	04 01       	.word	0x0104;	????	
 21e:	08 21       	jnz	$+530    	;abs 0x430
 220:	00 02       	.word	0x0200;	????	
 222:	04 01       	.word	0x0104;	????	
 224:	b8 00       	.word	0x00b8;	????	
 226:	02 04       	.word	0x0402;	????	
 228:	02 06       	.word	0x0602;	????	
 22a:	82 06       	.word	0x0682;	????	
 22c:	4f 00       	.word	0x004f;	????	
 22e:	02 04       	.word	0x0402;	????	
 230:	02 03       	.word	0x0302;	????	
 232:	70 66       	addc.b	@r6+,	r0	
 234:	00 02       	.word	0x0200;	????	
 236:	04 02       	.word	0x0204;	????	
 238:	03 11       	rra	#0		;r3 As==00
 23a:	82 00       	.word	0x0082;	????	
 23c:	02 04       	.word	0x0402;	????	
 23e:	01 06       	.word	0x0601;	????	
 240:	66 00       	.word	0x0066;	????	
 242:	02 04       	.word	0x0402;	????	
 244:	01 06       	.word	0x0601;	????	
 246:	49 69       	rlc.b	r9		
 248:	bd 69 4b 08 	addc	@r9+,	2123(r13);0x084b(r13)
 24c:	59 68 7e 6e 	addc.b	28286(r8),r9	;0x6e7e(r8)
 250:	03 29       	jnc	$+520    	;abs 0x458
 252:	66 fa       	and.b	@r10,	r6	
 254:	2f 67       	addc	@r7,	r15	
 256:	02 44       	mov	r4,	r2	
 258:	14 bd bb 31 	bit	12731(r13),r4	;0x31bb(r13)
 25c:	67 00       	.word	0x0067;	????	
 25e:	02 04       	.word	0x0402;	????	
 260:	01 06       	.word	0x0601;	????	
 262:	66 06       	.word	0x0666;	????	
 264:	f3 da       	bis.b	@r10+,	#1	;r3 As==01
 266:	9f 00       	.word	0x009f;	????	
 268:	02 04       	.word	0x0402;	????	
 26a:	01 06       	.word	0x0601;	????	
 26c:	66 06       	.word	0x0666;	????	
 26e:	08 ad       	dadd	r13,	r8	
 270:	b8 31       	jn	$+882    	;abs 0x5e2
 272:	30 67       	addc	@r7+,	r0	
 274:	08 21       	jnz	$+530    	;abs 0x486
 276:	9f d7 03 66 	bis	26115(r7),898(r15);0x6603(r7), 0x0382(r15)
 27a:	82 03 
 27c:	23 2e       	jc	$-952    	;abs 0xfec4
 27e:	00 02       	.word	0x0200;	????	
 280:	04 01       	.word	0x0104;	????	
 282:	03 5d       	.word	0x5d03;	????	Illegal as 2-op instr
 284:	4a 03       	.word	0x034a;	????	
 286:	26 66       	addc	@r6,	r6	
 288:	02 0a       	.word	0x0a02;	????	
 28a:	00 01       	.word	0x0100;	????	
 28c:	01 3d       	jmp	$+516    	;abs 0x490
 28e:	00 00       	.word	0x0000;	????	
 290:	00 02       	.word	0x0200;	????	
 292:	00 25       	jz	$+514    	;abs 0x494
 294:	00 00       	.word	0x0000;	????	
 296:	00 01       	.word	0x0100;	????	
 298:	01 fb       	and	r11,	r1	
 29a:	0e 0d       	.word	0x0d0e;	????	
 29c:	00 01       	.word	0x0100;	????	
 29e:	01 01       	.word	0x0101;	????	
 2a0:	01 00       	.word	0x0001;	????	
 2a2:	00 00       	.word	0x0000;	????	
 2a4:	01 00       	.word	0x0001;	????	
 2a6:	00 01       	.word	0x0100;	????	
 2a8:	00 63       	adc	r0		
 2aa:	6f 6e       	addc.b	@r14,	r15	
 2ac:	69 6f       	addc.b	@r15,	r9	
 2ae:	5f 73       	subc.b	#1,	r15	;r3 As==01
 2b0:	65 72       	subc.b	#4,	r5	;r2 As==10
 2b2:	69 61       	addc.b	@r1,	r9	
 2b4:	6c 2e       	jc	$-806    	;abs 0xff8e
 2b6:	63 00       	.word	0x0063;	????	
 2b8:	00 00       	.word	0x0000;	????	
 2ba:	00 00       	.word	0x0000;	????	
 2bc:	00 03       	.word	0x0300;	????	
 2be:	02 e4       	xor	r4,	r2	
 2c0:	c6 03       	.word	0x03c6;	????	
 2c2:	17 01       	.word	0x0117;	????	
 2c4:	13 4b       	.word	0x4b13;	????	Illegal as 2-op instr
 2c6:	31 13       	reti			;return from interupt
 2c8:	4b 02       	.word	0x024b;	????	
 2ca:	02 00       	.word	0x0002;	????	
 2cc:	01 01       	.word	0x0101;	????	
 2ce:	bd 00       	.word	0x00bd;	????	
 2d0:	00 00       	.word	0x0000;	????	
 2d2:	02 00       	.word	0x0002;	????	
 2d4:	71 00       	.word	0x0071;	????	
 2d6:	00 00       	.word	0x0000;	????	
 2d8:	01 01       	.word	0x0101;	????	
 2da:	fb 0e       	.word	0x0efb;	????	
 2dc:	0d 00       	.word	0x000d;	????	
 2de:	01 01       	.word	0x0101;	????	
 2e0:	01 01       	.word	0x0101;	????	
 2e2:	00 00       	.word	0x0000;	????	
 2e4:	00 01       	.word	0x0100;	????	
 2e6:	00 00       	.word	0x0000;	????	
 2e8:	01 2f       	jc	$-508    	;abs 0xec
 2ea:	75 73       	subc.b	#-1,	r5	;r3 As==11
 2ec:	72 2f       	jc	$-282    	;abs 0x1d2
 2ee:	6c 69       	addc.b	@r9,	r12	
 2f0:	62 2f       	jc	$-314    	;abs 0x1b6
 2f2:	67 63       	addc.b	#2,	r7	;r3 As==10
 2f4:	63 2f       	jc	$-312    	;abs 0x1bc
 2f6:	6d 73       	subc.b	#2,	r13	;r3 As==10
 2f8:	70 34       	jge	$+226    	;abs 0x3da
 2fa:	33 30       	jn	$+104    	;abs 0x362
 2fc:	2f 34       	jge	$+96     	;abs 0x35c
 2fe:	2e 36       	jge	$-930    	;abs 0xff5c
 300:	2e 33       	jn	$-418    	;abs 0x15e
 302:	2f 2e       	jc	$-928    	;abs 0xff62
 304:	2e 2f       	jc	$-418    	;abs 0x162
 306:	2e 2e       	jc	$-930    	;abs 0xff64
 308:	2f 2e       	jc	$-928    	;abs 0xff68
 30a:	2e 2f       	jc	$-418    	;abs 0x168
 30c:	2e 2e       	jc	$-930    	;abs 0xff6a
 30e:	2f 6d       	addc	@r13,	r15	
 310:	73 70       	.word	0x7073;	????	Illegal as 2-op instr
 312:	34 33       	jn	$-406    	;abs 0x17c
 314:	30 2f       	jc	$-414    	;abs 0x176
 316:	69 6e       	addc.b	@r14,	r9	
 318:	63 6c       	.word	0x6c63;	????	Illegal as 2-op instr
 31a:	75 64       	addc.b	@r4+,	r5	
 31c:	65 00       	.word	0x0065;	????	
 31e:	00 73       	sbc	r0		
 320:	65 72       	subc.b	#4,	r5	;r2 As==10
 322:	69 61       	addc.b	@r1,	r9	
 324:	6c 5f       	add.b	@r15,	r12	
 326:	75 73       	subc.b	#-1,	r5	;r3 As==11
 328:	63 69       	.word	0x6963;	????	Illegal as 2-op instr
 32a:	5f 6d 73 70 	addc.b	28787(r13),r15	;0x7073(r13)
 32e:	34 33       	jn	$-406    	;abs 0x198
 330:	30 2e       	jc	$-926    	;abs 0xff92
 332:	63 00       	.word	0x0063;	????	
 334:	00 00       	.word	0x0000;	????	
 336:	00 6d       	addc	r13,	r0	
 338:	73 70       	.word	0x7073;	????	Illegal as 2-op instr
 33a:	34 33       	jn	$-406    	;abs 0x1a4
 33c:	30 67       	addc	@r7+,	r0	
 33e:	32 35       	jge	$+614    	;abs 0x5a4
 340:	35 33       	jn	$-404    	;abs 0x1ac
 342:	2e 68       	addc	@r8,	r14	
 344:	00 01       	.word	0x0100;	????	
 346:	00 00       	.word	0x0000;	????	
 348:	00 00       	.word	0x0000;	????	
 34a:	03 02       	.word	0x0203;	????	
 34c:	f0 c6 03 2a 	bic.b	@r6+,	10755(r0);PC rel. 0x2d51
 350:	01 13       	reti			;return from interupt
 352:	67 67       	addc.b	@r7,	r7	
 354:	68 03       	.word	0x0368;	????	
 356:	0a 08       	.word	0x080a;	????	
 358:	ac 02       	.word	0x02ac;	????	
 35a:	2e 14       	.word	0x142e;	????	
 35c:	d7 bd bf 02 	bit.b	703(r13),5166(r7);0x02bf(r13), 0x142e(r7)
 360:	2e 14 
 362:	84 d7 bb bb 	bis	r7,	-17477(r4);0xbbbb(r4)
 366:	da bb d7 d7 	bit.b	-10281(r11),19364(r10);0xd7d7(r11), 0x4ba4(r10)
 36a:	a4 4b 
 36c:	67 03       	.word	0x0367;	????	
 36e:	4b 2e       	jc	$-872    	;abs 0x6
 370:	13 d7       	.word	0xd713;	????	Illegal as 2-op instr
 372:	03 36       	jge	$-1016   	;abs 0xff7a
 374:	2e 13       	reti			;return from interupt
 376:	4b 31       	jn	$+664    	;abs 0x60e
 378:	00 02       	.word	0x0200;	????	
 37a:	04 01       	.word	0x0104;	????	
 37c:	13 83       	dec	#0		;r3 As==00
 37e:	4b 31       	jn	$+664    	;abs 0x616
 380:	13 4b       	.word	0x4b13;	????	Illegal as 2-op instr
 382:	31 00       	.word	0x0031;	????	
 384:	02 04       	.word	0x0402;	????	
 386:	01 13       	reti			;return from interupt
 388:	83 4b       	mov	r11,	#1	;r3 As==01
 38a:	02 02       	.word	0x0202;	????	
 38c:	00 01       	.word	0x0100;	????	
 38e:	01 ae       	dadd	r14,	r1	
 390:	00 00       	.word	0x0000;	????	
 392:	00 02       	.word	0x0200;	????	
 394:	00 81       	sub	r1,	r0	
 396:	00 00       	.word	0x0000;	????	
 398:	00 01       	.word	0x0100;	????	
 39a:	01 fb       	and	r11,	r1	
 39c:	0e 0d       	.word	0x0d0e;	????	
 39e:	00 01       	.word	0x0100;	????	
 3a0:	01 01       	.word	0x0101;	????	
 3a2:	01 00       	.word	0x0001;	????	
 3a4:	00 00       	.word	0x0000;	????	
 3a6:	01 00       	.word	0x0001;	????	
 3a8:	00 01       	.word	0x0100;	????	
 3aa:	2f 62       	addc	#4,	r15	;r2 As==10
 3ac:	75 69       	addc.b	@r9+,	r5	
 3ae:	6c 64       	addc.b	@r4,	r12	
 3b0:	2f 67       	addc	@r7,	r15	
 3b2:	63 63       	.word	0x6363;	????	Illegal as 2-op instr
 3b4:	2d 6d       	addc	@r13,	r13	
 3b6:	73 70       	.word	0x7073;	????	Illegal as 2-op instr
 3b8:	34 33       	jn	$-406    	;abs 0x222
 3ba:	30 2d       	jc	$+610    	;abs 0x61c
 3bc:	52 32       	jn	$-858    	;abs 0x62
 3be:	61 38       	jl	$+196    	;abs 0x482
 3c0:	4e 33       	jn	$-354    	;abs 0x25e
 3c2:	2f 67       	addc	@r7,	r15	
 3c4:	63 63       	.word	0x6363;	????	Illegal as 2-op instr
 3c6:	2d 6d       	addc	@r13,	r13	
 3c8:	73 70       	.word	0x7073;	????	Illegal as 2-op instr
 3ca:	34 33       	jn	$-406    	;abs 0x234
 3cc:	30 2d       	jc	$+610    	;abs 0x62e
 3ce:	34 2e       	jc	$-918    	;abs 0x38
 3d0:	36 2e       	jc	$-914    	;abs 0x3e
 3d2:	33 7e       	.word	0x7e33;	????	Illegal as 2-op instr
 3d4:	6d 73       	subc.b	#2,	r13	;r3 As==10
 3d6:	70 67       	addc.b	@r7+,	r0	
 3d8:	63 63       	.word	0x6363;	????	Illegal as 2-op instr
 3da:	2d 32       	jn	$-932    	;abs 0x36
 3dc:	30 31       	jn	$+610    	;abs 0x63e
 3de:	32 30       	jn	$+102    	;abs 0x444
 3e0:	34 30       	jn	$+106    	;abs 0x44a
 3e2:	36 2f       	jc	$-402    	;abs 0x250
 3e4:	2e 2f       	jc	$-418    	;abs 0x242
 3e6:	67 63       	addc.b	#2,	r7	;r3 As==10
 3e8:	63 2d       	jc	$+712    	;abs 0x6b0
 3ea:	34 2e       	jc	$-918    	;abs 0x54
 3ec:	36 2e       	jc	$-914    	;abs 0x5a
 3ee:	33 2f       	jc	$-408    	;abs 0x256
 3f0:	6c 69       	addc.b	@r9,	r12	
 3f2:	62 67       	addc.b	@r7,	r2	
 3f4:	63 63       	.word	0x6363;	????	Illegal as 2-op instr
 3f6:	2f 2e       	jc	$-928    	;abs 0x56
 3f8:	2e 2f       	jc	$-418    	;abs 0x256
 3fa:	67 63       	addc.b	#2,	r7	;r3 As==10
 3fc:	63 2f       	jc	$-312    	;abs 0x2c4
 3fe:	63 6f       	.word	0x6f63;	????	Illegal as 2-op instr
 400:	6e 66       	addc.b	@r6,	r14	
 402:	69 67       	addc.b	@r7,	r9	
 404:	2f 6d       	addc	@r13,	r15	
 406:	73 70       	.word	0x7073;	????	Illegal as 2-op instr
 408:	34 33       	jn	$-406    	;abs 0x272
 40a:	30 00       	.word	0x0030;	????	
 40c:	00 6c       	addc	r12,	r0	
 40e:	69 62       	addc.b	#4,	r9	;r2 As==10
 410:	67 63       	addc.b	#2,	r7	;r3 As==10
 412:	63 2e       	jc	$-824    	;abs 0xda
 414:	53 00       	.word	0x0053;	????	
 416:	01 00       	.word	0x0001;	????	
 418:	00 00       	.word	0x0000;	????	
 41a:	00 03       	.word	0x0300;	????	
 41c:	02 52       	rla	r2		
 41e:	c8 03       	.word	0x03c8;	????	
 420:	c6 04       	.word	0x04c6;	????	
 422:	01 2f       	jc	$-508    	;abs 0x226
 424:	2f 2f       	jc	$-416    	;abs 0x284
 426:	4b 2f       	jc	$-360    	;abs 0x2be
 428:	2f 2f       	jc	$-416    	;abs 0x288
 42a:	2f 2f       	jc	$-416    	;abs 0x28a
 42c:	2f 2f       	jc	$-416    	;abs 0x28c
 42e:	2f 4b       	mov	@r11,	r15	
 430:	2f 2f       	jc	$-416    	;abs 0x290
 432:	2f 2f       	jc	$-416    	;abs 0x292
 434:	2f 2f       	jc	$-416    	;abs 0x294
 436:	2f 2f       	jc	$-416    	;abs 0x296
 438:	2f 34       	jge	$+96     	;abs 0x498
 43a:	4b 2f       	jc	$-360    	;abs 0x2d2
 43c:	02 02       	.word	0x0202;	????	
 43e:	00 01       	.word	0x0100;	????	
 440:	01 a3       	dadc	r1		
 442:	00 00       	.word	0x0000;	????	
 444:	00 02       	.word	0x0200;	????	
 446:	00 81       	sub	r1,	r0	
 448:	00 00       	.word	0x0000;	????	
 44a:	00 01       	.word	0x0100;	????	
 44c:	01 fb       	and	r11,	r1	
 44e:	0e 0d       	.word	0x0d0e;	????	
 450:	00 01       	.word	0x0100;	????	
 452:	01 01       	.word	0x0101;	????	
 454:	01 00       	.word	0x0001;	????	
 456:	00 00       	.word	0x0000;	????	
 458:	01 00       	.word	0x0001;	????	
 45a:	00 01       	.word	0x0100;	????	
 45c:	2f 62       	addc	#4,	r15	;r2 As==10
 45e:	75 69       	addc.b	@r9+,	r5	
 460:	6c 64       	addc.b	@r4,	r12	
 462:	2f 67       	addc	@r7,	r15	
 464:	63 63       	.word	0x6363;	????	Illegal as 2-op instr
 466:	2d 6d       	addc	@r13,	r13	
 468:	73 70       	.word	0x7073;	????	Illegal as 2-op instr
 46a:	34 33       	jn	$-406    	;abs 0x2d4
 46c:	30 2d       	jc	$+610    	;abs 0x6ce
 46e:	52 32       	jn	$-858    	;abs 0x114
 470:	61 38       	jl	$+196    	;abs 0x534
 472:	4e 33       	jn	$-354    	;abs 0x310
 474:	2f 67       	addc	@r7,	r15	
 476:	63 63       	.word	0x6363;	????	Illegal as 2-op instr
 478:	2d 6d       	addc	@r13,	r13	
 47a:	73 70       	.word	0x7073;	????	Illegal as 2-op instr
 47c:	34 33       	jn	$-406    	;abs 0x2e6
 47e:	30 2d       	jc	$+610    	;abs 0x6e0
 480:	34 2e       	jc	$-918    	;abs 0xea
 482:	36 2e       	jc	$-914    	;abs 0xf0
 484:	33 7e       	.word	0x7e33;	????	Illegal as 2-op instr
 486:	6d 73       	subc.b	#2,	r13	;r3 As==10
 488:	70 67       	addc.b	@r7+,	r0	
 48a:	63 63       	.word	0x6363;	????	Illegal as 2-op instr
 48c:	2d 32       	jn	$-932    	;abs 0xe8
 48e:	30 31       	jn	$+610    	;abs 0x6f0
 490:	32 30       	jn	$+102    	;abs 0x4f6
 492:	34 30       	jn	$+106    	;abs 0x4fc
 494:	36 2f       	jc	$-402    	;abs 0x302
 496:	2e 2f       	jc	$-418    	;abs 0x2f4
 498:	67 63       	addc.b	#2,	r7	;r3 As==10
 49a:	63 2d       	jc	$+712    	;abs 0x762
 49c:	34 2e       	jc	$-918    	;abs 0x106
 49e:	36 2e       	jc	$-914    	;abs 0x10c
 4a0:	33 2f       	jc	$-408    	;abs 0x308
 4a2:	6c 69       	addc.b	@r9,	r12	
 4a4:	62 67       	addc.b	@r7,	r2	
 4a6:	63 63       	.word	0x6363;	????	Illegal as 2-op instr
 4a8:	2f 2e       	jc	$-928    	;abs 0x108
 4aa:	2e 2f       	jc	$-418    	;abs 0x308
 4ac:	67 63       	addc.b	#2,	r7	;r3 As==10
 4ae:	63 2f       	jc	$-312    	;abs 0x376
 4b0:	63 6f       	.word	0x6f63;	????	Illegal as 2-op instr
 4b2:	6e 66       	addc.b	@r6,	r14	
 4b4:	69 67       	addc.b	@r7,	r9	
 4b6:	2f 6d       	addc	@r13,	r15	
 4b8:	73 70       	.word	0x7073;	????	Illegal as 2-op instr
 4ba:	34 33       	jn	$-406    	;abs 0x324
 4bc:	30 00       	.word	0x0030;	????	
 4be:	00 6c       	addc	r12,	r0	
 4c0:	69 62       	addc.b	#4,	r9	;r2 As==10
 4c2:	67 63       	addc.b	#2,	r7	;r3 As==10
 4c4:	63 2e       	jc	$-824    	;abs 0x18c
 4c6:	53 00       	.word	0x0053;	????	
 4c8:	01 00       	.word	0x0001;	????	
 4ca:	00 00       	.word	0x0000;	????	
 4cc:	00 03       	.word	0x0300;	????	
 4ce:	02 8c       	sub	r12,	r2	
 4d0:	c8 03       	.word	0x03c8;	????	
 4d2:	a4 04       	.word	0x04a4;	????	
 4d4:	01 4b       	mov	r11,	r1	
 4d6:	2f 2f       	jc	$-416    	;abs 0x336
 4d8:	2f 2f       	jc	$-416    	;abs 0x338
 4da:	2f 2f       	jc	$-416    	;abs 0x33a
 4dc:	2f 2f       	jc	$-416    	;abs 0x33c
 4de:	2f 2f       	jc	$-416    	;abs 0x33e
 4e0:	34 4b       	mov	@r11+,	r4	
 4e2:	2f 02       	.word	0x022f;	????	
 4e4:	02 00       	.word	0x0002;	????	
 4e6:	01 01       	.word	0x0101;	????	
 4e8:	8b 00       	.word	0x008b;	????	
 4ea:	00 00       	.word	0x0000;	????	
 4ec:	02 00       	.word	0x0002;	????	
 4ee:	75 00       	.word	0x0075;	????	
 4f0:	00 00       	.word	0x0000;	????	
 4f2:	01 01       	.word	0x0101;	????	
 4f4:	fb 0e       	.word	0x0efb;	????	
 4f6:	0d 00       	.word	0x000d;	????	
 4f8:	01 01       	.word	0x0101;	????	
 4fa:	01 01       	.word	0x0101;	????	
 4fc:	00 00       	.word	0x0000;	????	
 4fe:	00 01       	.word	0x0100;	????	
 500:	00 00       	.word	0x0000;	????	
 502:	01 2f       	jc	$-508    	;abs 0x306
 504:	62 75       	subc.b	@r5,	r2	
 506:	69 6c       	addc.b	@r12,	r9	
 508:	64 2f       	jc	$-310    	;abs 0x3d2
 50a:	67 63       	addc.b	#2,	r7	;r3 As==10
 50c:	63 2d       	jc	$+712    	;abs 0x7d4
 50e:	6d 73       	subc.b	#2,	r13	;r3 As==10
 510:	70 34       	jge	$+226    	;abs 0x5f2
 512:	33 30       	jn	$+104    	;abs 0x57a
 514:	2d 52       	add	#4,	r13	;r2 As==10
 516:	32 61       	addc	@r1+,	r2	
 518:	38 4e       	mov	@r14+,	r8	
 51a:	33 2f       	jc	$-408    	;abs 0x382
 51c:	67 63       	addc.b	#2,	r7	;r3 As==10
 51e:	63 2d       	jc	$+712    	;abs 0x7e6
 520:	6d 73       	subc.b	#2,	r13	;r3 As==10
 522:	70 34       	jge	$+226    	;abs 0x604
 524:	33 30       	jn	$+104    	;abs 0x58c
 526:	2d 34       	jge	$+92     	;abs 0x582
 528:	2e 36       	jge	$-930    	;abs 0x186
 52a:	2e 33       	jn	$-418    	;abs 0x388
 52c:	7e 6d       	addc.b	@r13+,	r14	
 52e:	73 70       	.word	0x7073;	????	Illegal as 2-op instr
 530:	67 63       	addc.b	#2,	r7	;r3 As==10
 532:	63 2d       	jc	$+712    	;abs 0x7fa
 534:	32 30       	jn	$+102    	;abs 0x59a
 536:	31 32       	jn	$-924    	;abs 0x19a
 538:	30 34       	jge	$+98     	;abs 0x59a
 53a:	30 36       	jge	$-926    	;abs 0x19c
 53c:	2f 2e       	jc	$-928    	;abs 0x19c
 53e:	2f 67       	addc	@r7,	r15	
 540:	63 63       	.word	0x6363;	????	Illegal as 2-op instr
 542:	2d 34       	jge	$+92     	;abs 0x59e
 544:	2e 36       	jge	$-930    	;abs 0x1a2
 546:	2e 33       	jn	$-418    	;abs 0x3a4
 548:	2f 67       	addc	@r7,	r15	
 54a:	63 63       	.word	0x6363;	????	Illegal as 2-op instr
 54c:	2f 63       	addc	#2,	r15	;r3 As==10
 54e:	6f 6e       	addc.b	@r14,	r15	
 550:	66 69       	addc.b	@r9,	r6	
 552:	67 2f       	jc	$-304    	;abs 0x422
 554:	6d 73       	subc.b	#2,	r13	;r3 As==10
 556:	70 34       	jge	$+226    	;abs 0x638
 558:	33 30       	jn	$+104    	;abs 0x5c0
 55a:	00 00       	.word	0x0000;	????	
 55c:	63 72       	.word	0x7263;	????	Illegal as 2-op instr
 55e:	74 30       	jn	$+234    	;abs 0x648
 560:	2e 53       	incd	r14		
 562:	00 01       	.word	0x0100;	????	
 564:	00 00       	.word	0x0000;	????	
 566:	00 00       	.word	0x0000;	????	
 568:	03 02       	.word	0x0203;	????	
 56a:	00 c0       	bic	r0,	r0	
 56c:	03 e8       	.word	0xe803;	????	Illegal as 2-op instr
 56e:	00 01       	.word	0x0100;	????	
 570:	4b 4b       	mov.b	r11,	r11	
 572:	02 04       	.word	0x0402;	????	
 574:	00 01       	.word	0x0100;	????	
 576:	01 89       	sub	r9,	r1	
 578:	00 00       	.word	0x0000;	????	
 57a:	00 02       	.word	0x0200;	????	
 57c:	00 75       	subc	r5,	r0	
 57e:	00 00       	.word	0x0000;	????	
 580:	00 01       	.word	0x0100;	????	
 582:	01 fb       	and	r11,	r1	
 584:	0e 0d       	.word	0x0d0e;	????	
 586:	00 01       	.word	0x0100;	????	
 588:	01 01       	.word	0x0101;	????	
 58a:	01 00       	.word	0x0001;	????	
 58c:	00 00       	.word	0x0000;	????	
 58e:	01 00       	.word	0x0001;	????	
 590:	00 01       	.word	0x0100;	????	
 592:	2f 62       	addc	#4,	r15	;r2 As==10
 594:	75 69       	addc.b	@r9+,	r5	
 596:	6c 64       	addc.b	@r4,	r12	
 598:	2f 67       	addc	@r7,	r15	
 59a:	63 63       	.word	0x6363;	????	Illegal as 2-op instr
 59c:	2d 6d       	addc	@r13,	r13	
 59e:	73 70       	.word	0x7073;	????	Illegal as 2-op instr
 5a0:	34 33       	jn	$-406    	;abs 0x40a
 5a2:	30 2d       	jc	$+610    	;abs 0x804
 5a4:	52 32       	jn	$-858    	;abs 0x24a
 5a6:	61 38       	jl	$+196    	;abs 0x66a
 5a8:	4e 33       	jn	$-354    	;abs 0x446
 5aa:	2f 67       	addc	@r7,	r15	
 5ac:	63 63       	.word	0x6363;	????	Illegal as 2-op instr
 5ae:	2d 6d       	addc	@r13,	r13	
 5b0:	73 70       	.word	0x7073;	????	Illegal as 2-op instr
 5b2:	34 33       	jn	$-406    	;abs 0x41c
 5b4:	30 2d       	jc	$+610    	;abs 0x816
 5b6:	34 2e       	jc	$-918    	;abs 0x220
 5b8:	36 2e       	jc	$-914    	;abs 0x226
 5ba:	33 7e       	.word	0x7e33;	????	Illegal as 2-op instr
 5bc:	6d 73       	subc.b	#2,	r13	;r3 As==10
 5be:	70 67       	addc.b	@r7+,	r0	
 5c0:	63 63       	.word	0x6363;	????	Illegal as 2-op instr
 5c2:	2d 32       	jn	$-932    	;abs 0x21e
 5c4:	30 31       	jn	$+610    	;abs 0x826
 5c6:	32 30       	jn	$+102    	;abs 0x62c
 5c8:	34 30       	jn	$+106    	;abs 0x632
 5ca:	36 2f       	jc	$-402    	;abs 0x438
 5cc:	2e 2f       	jc	$-418    	;abs 0x42a
 5ce:	67 63       	addc.b	#2,	r7	;r3 As==10
 5d0:	63 2d       	jc	$+712    	;abs 0x898
 5d2:	34 2e       	jc	$-918    	;abs 0x23c
 5d4:	36 2e       	jc	$-914    	;abs 0x242
 5d6:	33 2f       	jc	$-408    	;abs 0x43e
 5d8:	67 63       	addc.b	#2,	r7	;r3 As==10
 5da:	63 2f       	jc	$-312    	;abs 0x4a2
 5dc:	63 6f       	.word	0x6f63;	????	Illegal as 2-op instr
 5de:	6e 66       	addc.b	@r6,	r14	
 5e0:	69 67       	addc.b	@r7,	r9	
 5e2:	2f 6d       	addc	@r13,	r15	
 5e4:	73 70       	.word	0x7073;	????	Illegal as 2-op instr
 5e6:	34 33       	jn	$-406    	;abs 0x450
 5e8:	30 00       	.word	0x0030;	????	
 5ea:	00 63       	adc	r0		
 5ec:	72 74       	subc.b	@r4+,	r2	
 5ee:	30 2e       	jc	$-926    	;abs 0x250
 5f0:	53 00       	.word	0x0053;	????	
 5f2:	01 00       	.word	0x0001;	????	
 5f4:	00 00       	.word	0x0000;	????	
 5f6:	00 03       	.word	0x0300;	????	
 5f8:	02 0c       	.word	0x0c02;	????	
 5fa:	c0 03       	.word	0x03c0;	????	
 5fc:	99 01       	.word	0x0199;	????	
 5fe:	01 02       	.word	0x0201;	????	
 600:	04 00       	.word	0x0004;	????	
 602:	01 01       	.word	0x0101;	????	
 604:	8f 00       	.word	0x008f;	????	
 606:	00 00       	.word	0x0000;	????	
 608:	02 00       	.word	0x0002;	????	
 60a:	75 00       	.word	0x0075;	????	
 60c:	00 00       	.word	0x0000;	????	
 60e:	01 01       	.word	0x0101;	????	
 610:	fb 0e       	.word	0x0efb;	????	
 612:	0d 00       	.word	0x000d;	????	
 614:	01 01       	.word	0x0101;	????	
 616:	01 01       	.word	0x0101;	????	
 618:	00 00       	.word	0x0000;	????	
 61a:	00 01       	.word	0x0100;	????	
 61c:	00 00       	.word	0x0000;	????	
 61e:	01 2f       	jc	$-508    	;abs 0x422
 620:	62 75       	subc.b	@r5,	r2	
 622:	69 6c       	addc.b	@r12,	r9	
 624:	64 2f       	jc	$-310    	;abs 0x4ee
 626:	67 63       	addc.b	#2,	r7	;r3 As==10
 628:	63 2d       	jc	$+712    	;abs 0x8f0
 62a:	6d 73       	subc.b	#2,	r13	;r3 As==10
 62c:	70 34       	jge	$+226    	;abs 0x70e
 62e:	33 30       	jn	$+104    	;abs 0x696
 630:	2d 52       	add	#4,	r13	;r2 As==10
 632:	32 61       	addc	@r1+,	r2	
 634:	38 4e       	mov	@r14+,	r8	
 636:	33 2f       	jc	$-408    	;abs 0x49e
 638:	67 63       	addc.b	#2,	r7	;r3 As==10
 63a:	63 2d       	jc	$+712    	;abs 0x902
 63c:	6d 73       	subc.b	#2,	r13	;r3 As==10
 63e:	70 34       	jge	$+226    	;abs 0x720
 640:	33 30       	jn	$+104    	;abs 0x6a8
 642:	2d 34       	jge	$+92     	;abs 0x69e
 644:	2e 36       	jge	$-930    	;abs 0x2a2
 646:	2e 33       	jn	$-418    	;abs 0x4a4
 648:	7e 6d       	addc.b	@r13+,	r14	
 64a:	73 70       	.word	0x7073;	????	Illegal as 2-op instr
 64c:	67 63       	addc.b	#2,	r7	;r3 As==10
 64e:	63 2d       	jc	$+712    	;abs 0x916
 650:	32 30       	jn	$+102    	;abs 0x6b6
 652:	31 32       	jn	$-924    	;abs 0x2b6
 654:	30 34       	jge	$+98     	;abs 0x6b6
 656:	30 36       	jge	$-926    	;abs 0x2b8
 658:	2f 2e       	jc	$-928    	;abs 0x2b8
 65a:	2f 67       	addc	@r7,	r15	
 65c:	63 63       	.word	0x6363;	????	Illegal as 2-op instr
 65e:	2d 34       	jge	$+92     	;abs 0x6ba
 660:	2e 36       	jge	$-930    	;abs 0x2be
 662:	2e 33       	jn	$-418    	;abs 0x4c0
 664:	2f 67       	addc	@r7,	r15	
 666:	63 63       	.word	0x6363;	????	Illegal as 2-op instr
 668:	2f 63       	addc	#2,	r15	;r3 As==10
 66a:	6f 6e       	addc.b	@r14,	r15	
 66c:	66 69       	addc.b	@r9,	r6	
 66e:	67 2f       	jc	$-304    	;abs 0x53e
 670:	6d 73       	subc.b	#2,	r13	;r3 As==10
 672:	70 34       	jge	$+226    	;abs 0x754
 674:	33 30       	jn	$+104    	;abs 0x6dc
 676:	00 00       	.word	0x0000;	????	
 678:	63 72       	.word	0x7263;	????	Illegal as 2-op instr
 67a:	74 30       	jn	$+234    	;abs 0x764
 67c:	2e 53       	incd	r14		
 67e:	00 01       	.word	0x0100;	????	
 680:	00 00       	.word	0x0000;	????	
 682:	00 00       	.word	0x0000;	????	
 684:	03 02       	.word	0x0203;	????	
 686:	10 c0 03 bc 	bic	-17405(r0),r0	;PC rel. 0xc28b
 68a:	01 01       	.word	0x0101;	????	
 68c:	4b 2f       	jc	$-360    	;abs 0x524
 68e:	30 67       	addc	@r7+,	r0	
 690:	2f 67       	addc	@r7,	r15	
 692:	02 02       	.word	0x0202;	????	
 694:	00 01       	.word	0x0100;	????	
 696:	01 8f       	sub	r15,	r1	
 698:	00 00       	.word	0x0000;	????	
 69a:	00 02       	.word	0x0200;	????	
 69c:	00 75       	subc	r5,	r0	
 69e:	00 00       	.word	0x0000;	????	
 6a0:	00 01       	.word	0x0100;	????	
 6a2:	01 fb       	and	r11,	r1	
 6a4:	0e 0d       	.word	0x0d0e;	????	
 6a6:	00 01       	.word	0x0100;	????	
 6a8:	01 01       	.word	0x0101;	????	
 6aa:	01 00       	.word	0x0001;	????	
 6ac:	00 00       	.word	0x0000;	????	
 6ae:	01 00       	.word	0x0001;	????	
 6b0:	00 01       	.word	0x0100;	????	
 6b2:	2f 62       	addc	#4,	r15	;r2 As==10
 6b4:	75 69       	addc.b	@r9+,	r5	
 6b6:	6c 64       	addc.b	@r4,	r12	
 6b8:	2f 67       	addc	@r7,	r15	
 6ba:	63 63       	.word	0x6363;	????	Illegal as 2-op instr
 6bc:	2d 6d       	addc	@r13,	r13	
 6be:	73 70       	.word	0x7073;	????	Illegal as 2-op instr
 6c0:	34 33       	jn	$-406    	;abs 0x52a
 6c2:	30 2d       	jc	$+610    	;abs 0x924
 6c4:	52 32       	jn	$-858    	;abs 0x36a
 6c6:	61 38       	jl	$+196    	;abs 0x78a
 6c8:	4e 33       	jn	$-354    	;abs 0x566
 6ca:	2f 67       	addc	@r7,	r15	
 6cc:	63 63       	.word	0x6363;	????	Illegal as 2-op instr
 6ce:	2d 6d       	addc	@r13,	r13	
 6d0:	73 70       	.word	0x7073;	????	Illegal as 2-op instr
 6d2:	34 33       	jn	$-406    	;abs 0x53c
 6d4:	30 2d       	jc	$+610    	;abs 0x936
 6d6:	34 2e       	jc	$-918    	;abs 0x340
 6d8:	36 2e       	jc	$-914    	;abs 0x346
 6da:	33 7e       	.word	0x7e33;	????	Illegal as 2-op instr
 6dc:	6d 73       	subc.b	#2,	r13	;r3 As==10
 6de:	70 67       	addc.b	@r7+,	r0	
 6e0:	63 63       	.word	0x6363;	????	Illegal as 2-op instr
 6e2:	2d 32       	jn	$-932    	;abs 0x33e
 6e4:	30 31       	jn	$+610    	;abs 0x946
 6e6:	32 30       	jn	$+102    	;abs 0x74c
 6e8:	34 30       	jn	$+106    	;abs 0x752
 6ea:	36 2f       	jc	$-402    	;abs 0x558
 6ec:	2e 2f       	jc	$-418    	;abs 0x54a
 6ee:	67 63       	addc.b	#2,	r7	;r3 As==10
 6f0:	63 2d       	jc	$+712    	;abs 0x9b8
 6f2:	34 2e       	jc	$-918    	;abs 0x35c
 6f4:	36 2e       	jc	$-914    	;abs 0x362
 6f6:	33 2f       	jc	$-408    	;abs 0x55e
 6f8:	67 63       	addc.b	#2,	r7	;r3 As==10
 6fa:	63 2f       	jc	$-312    	;abs 0x5c2
 6fc:	63 6f       	.word	0x6f63;	????	Illegal as 2-op instr
 6fe:	6e 66       	addc.b	@r6,	r14	
 700:	69 67       	addc.b	@r7,	r9	
 702:	2f 6d       	addc	@r13,	r15	
 704:	73 70       	.word	0x7073;	????	Illegal as 2-op instr
 706:	34 33       	jn	$-406    	;abs 0x570
 708:	30 00       	.word	0x0030;	????	
 70a:	00 63       	adc	r0		
 70c:	72 74       	subc.b	@r4+,	r2	
 70e:	30 2e       	jc	$-926    	;abs 0x370
 710:	53 00       	.word	0x0053;	????	
 712:	01 00       	.word	0x0001;	????	
 714:	00 00       	.word	0x0000;	????	
 716:	00 03       	.word	0x0300;	????	
 718:	02 28       	jnc	$+6      	;abs 0x71e
 71a:	c0 03       	.word	0x03c0;	????	
 71c:	d6 01       	.word	0x01d6;	????	
 71e:	01 4b       	mov	r11,	r1	
 720:	2f 30       	jn	$+96     	;abs 0x780
 722:	67 2f       	jc	$-304    	;abs 0x5f2
 724:	4b 02       	.word	0x024b;	????	
 726:	02 00       	.word	0x0002;	????	
 728:	01 01       	.word	0x0101;	????	
 72a:	8a 00       	.word	0x008a;	????	
 72c:	00 00       	.word	0x0000;	????	
 72e:	02 00       	.word	0x0002;	????	
 730:	75 00       	.word	0x0075;	????	
 732:	00 00       	.word	0x0000;	????	
 734:	01 01       	.word	0x0101;	????	
 736:	fb 0e       	.word	0x0efb;	????	
 738:	0d 00       	.word	0x000d;	????	
 73a:	01 01       	.word	0x0101;	????	
 73c:	01 01       	.word	0x0101;	????	
 73e:	00 00       	.word	0x0000;	????	
 740:	00 01       	.word	0x0100;	????	
 742:	00 00       	.word	0x0000;	????	
 744:	01 2f       	jc	$-508    	;abs 0x548
 746:	62 75       	subc.b	@r5,	r2	
 748:	69 6c       	addc.b	@r12,	r9	
 74a:	64 2f       	jc	$-310    	;abs 0x614
 74c:	67 63       	addc.b	#2,	r7	;r3 As==10
 74e:	63 2d       	jc	$+712    	;abs 0xa16
 750:	6d 73       	subc.b	#2,	r13	;r3 As==10
 752:	70 34       	jge	$+226    	;abs 0x834
 754:	33 30       	jn	$+104    	;abs 0x7bc
 756:	2d 52       	add	#4,	r13	;r2 As==10
 758:	32 61       	addc	@r1+,	r2	
 75a:	38 4e       	mov	@r14+,	r8	
 75c:	33 2f       	jc	$-408    	;abs 0x5c4
 75e:	67 63       	addc.b	#2,	r7	;r3 As==10
 760:	63 2d       	jc	$+712    	;abs 0xa28
 762:	6d 73       	subc.b	#2,	r13	;r3 As==10
 764:	70 34       	jge	$+226    	;abs 0x846
 766:	33 30       	jn	$+104    	;abs 0x7ce
 768:	2d 34       	jge	$+92     	;abs 0x7c4
 76a:	2e 36       	jge	$-930    	;abs 0x3c8
 76c:	2e 33       	jn	$-418    	;abs 0x5ca
 76e:	7e 6d       	addc.b	@r13+,	r14	
 770:	73 70       	.word	0x7073;	????	Illegal as 2-op instr
 772:	67 63       	addc.b	#2,	r7	;r3 As==10
 774:	63 2d       	jc	$+712    	;abs 0xa3c
 776:	32 30       	jn	$+102    	;abs 0x7dc
 778:	31 32       	jn	$-924    	;abs 0x3dc
 77a:	30 34       	jge	$+98     	;abs 0x7dc
 77c:	30 36       	jge	$-926    	;abs 0x3de
 77e:	2f 2e       	jc	$-928    	;abs 0x3de
 780:	2f 67       	addc	@r7,	r15	
 782:	63 63       	.word	0x6363;	????	Illegal as 2-op instr
 784:	2d 34       	jge	$+92     	;abs 0x7e0
 786:	2e 36       	jge	$-930    	;abs 0x3e4
 788:	2e 33       	jn	$-418    	;abs 0x5e6
 78a:	2f 67       	addc	@r7,	r15	
 78c:	63 63       	.word	0x6363;	????	Illegal as 2-op instr
 78e:	2f 63       	addc	#2,	r15	;r3 As==10
 790:	6f 6e       	addc.b	@r14,	r15	
 792:	66 69       	addc.b	@r9,	r6	
 794:	67 2f       	jc	$-304    	;abs 0x664
 796:	6d 73       	subc.b	#2,	r13	;r3 As==10
 798:	70 34       	jge	$+226    	;abs 0x87a
 79a:	33 30       	jn	$+104    	;abs 0x802
 79c:	00 00       	.word	0x0000;	????	
 79e:	63 72       	.word	0x7263;	????	Illegal as 2-op instr
 7a0:	74 30       	jn	$+234    	;abs 0x88a
 7a2:	2e 53       	incd	r14		
 7a4:	00 01       	.word	0x0100;	????	
 7a6:	00 00       	.word	0x0000;	????	
 7a8:	00 00       	.word	0x0000;	????	
 7aa:	03 02       	.word	0x0203;	????	
 7ac:	34 c1       	bic	@r1+,	r4	
 7ae:	03 fe       	.word	0xfe03;	????	Illegal as 2-op instr
 7b0:	01 01       	.word	0x0101;	????	
 7b2:	4b 02       	.word	0x024b;	????	
 7b4:	02 00       	.word	0x0002;	????	
 7b6:	01 01       	.word	0x0101;	????	
 7b8:	89 00       	.word	0x0089;	????	
 7ba:	00 00       	.word	0x0000;	????	
 7bc:	02 00       	.word	0x0002;	????	
 7be:	75 00       	.word	0x0075;	????	
 7c0:	00 00       	.word	0x0000;	????	
 7c2:	01 01       	.word	0x0101;	????	
 7c4:	fb 0e       	.word	0x0efb;	????	
 7c6:	0d 00       	.word	0x000d;	????	
 7c8:	01 01       	.word	0x0101;	????	
 7ca:	01 01       	.word	0x0101;	????	
 7cc:	00 00       	.word	0x0000;	????	
 7ce:	00 01       	.word	0x0100;	????	
 7d0:	00 00       	.word	0x0000;	????	
 7d2:	01 2f       	jc	$-508    	;abs 0x5d6
 7d4:	62 75       	subc.b	@r5,	r2	
 7d6:	69 6c       	addc.b	@r12,	r9	
 7d8:	64 2f       	jc	$-310    	;abs 0x6a2
 7da:	67 63       	addc.b	#2,	r7	;r3 As==10
 7dc:	63 2d       	jc	$+712    	;abs 0xaa4
 7de:	6d 73       	subc.b	#2,	r13	;r3 As==10
 7e0:	70 34       	jge	$+226    	;abs 0x8c2
 7e2:	33 30       	jn	$+104    	;abs 0x84a
 7e4:	2d 52       	add	#4,	r13	;r2 As==10
 7e6:	32 61       	addc	@r1+,	r2	
 7e8:	38 4e       	mov	@r14+,	r8	
 7ea:	33 2f       	jc	$-408    	;abs 0x652
 7ec:	67 63       	addc.b	#2,	r7	;r3 As==10
 7ee:	63 2d       	jc	$+712    	;abs 0xab6
 7f0:	6d 73       	subc.b	#2,	r13	;r3 As==10
 7f2:	70 34       	jge	$+226    	;abs 0x8d4
 7f4:	33 30       	jn	$+104    	;abs 0x85c
 7f6:	2d 34       	jge	$+92     	;abs 0x852
 7f8:	2e 36       	jge	$-930    	;abs 0x456
 7fa:	2e 33       	jn	$-418    	;abs 0x658
 7fc:	7e 6d       	addc.b	@r13+,	r14	
 7fe:	73 70       	.word	0x7073;	????	Illegal as 2-op instr
 800:	67 63       	addc.b	#2,	r7	;r3 As==10
 802:	63 2d       	jc	$+712    	;abs 0xaca
 804:	32 30       	jn	$+102    	;abs 0x86a
 806:	31 32       	jn	$-924    	;abs 0x46a
 808:	30 34       	jge	$+98     	;abs 0x86a
 80a:	30 36       	jge	$-926    	;abs 0x46c
 80c:	2f 2e       	jc	$-928    	;abs 0x46c
 80e:	2f 67       	addc	@r7,	r15	
 810:	63 63       	.word	0x6363;	????	Illegal as 2-op instr
 812:	2d 34       	jge	$+92     	;abs 0x86e
 814:	2e 36       	jge	$-930    	;abs 0x472
 816:	2e 33       	jn	$-418    	;abs 0x674
 818:	2f 67       	addc	@r7,	r15	
 81a:	63 63       	.word	0x6363;	????	Illegal as 2-op instr
 81c:	2f 63       	addc	#2,	r15	;r3 As==10
 81e:	6f 6e       	addc.b	@r14,	r15	
 820:	66 69       	addc.b	@r9,	r6	
 822:	67 2f       	jc	$-304    	;abs 0x6f2
 824:	6d 73       	subc.b	#2,	r13	;r3 As==10
 826:	70 34       	jge	$+226    	;abs 0x908
 828:	33 30       	jn	$+104    	;abs 0x890
 82a:	00 00       	.word	0x0000;	????	
 82c:	63 72       	.word	0x7263;	????	Illegal as 2-op instr
 82e:	74 30       	jn	$+234    	;abs 0x918
 830:	2e 53       	incd	r14		
 832:	00 01       	.word	0x0100;	????	
 834:	00 00       	.word	0x0000;	????	
 836:	00 00       	.word	0x0000;	????	
 838:	03 02       	.word	0x0203;	????	
 83a:	ae c8 03 cd 	bic	@r8,	-13053(r14);0xcd03(r14)
 83e:	02 01       	.word	0x0102;	????	
 840:	02 02       	.word	0x0202;	????	
 842:	00 01       	.word	0x0100;	????	
 844:	01 73       	Address 0x0000000000000844 is out of bounds.
Address 0x0000000000000846 is out of bounds.
and.b	@r15+,	-1(r15)	;0xffff(r15)

Disassembly of section .debug_frame:

00000000 <.debug_frame>:
   0:	0e 00       	.word	0x000e;	????	
   2:	00 00       	.word	0x0000;	????	
   4:	ff ff ff ff 	and.b	@r15+,	-1(r15)	;0xffff(r15)
   8:	01 00       	.word	0x0001;	????	
   a:	01 7e       	subc	r14,	r1	
   c:	00 0c       	.word	0x0c00;	????	
   e:	01 02       	.word	0x0201;	????	
  10:	80 01       	.word	0x0180;	????	
  12:	08 00       	.word	0x0008;	????	
  14:	00 00       	.word	0x0000;	????	
  16:	00 00       	.word	0x0000;	????	
  18:	00 00       	.word	0x0000;	????	
  1a:	3e c0 f6 00 	bic	#246,	r14	;#0x00f6
  1e:	1c 00       	.word	0x001c;	????	
  20:	00 00       	.word	0x0000;	????	
  22:	00 00       	.word	0x0000;	????	
  24:	00 00       	.word	0x0000;	????	
  26:	3e c1       	bic	@r1+,	r14	
  28:	30 01       	.word	0x0130;	????	
  2a:	42 0e       	.word	0x0e42;	????	
  2c:	04 8f       	sub	r15,	r4	
  2e:	02 42       	mov	r2,	r2	
  30:	0e 06       	.word	0x060e;	????	
  32:	8e 03       	.word	0x038e;	????	
  34:	42 0e       	.word	0x0e42;	????	
  36:	08 8d       	sub	r13,	r8	
  38:	04 42       	mov	r2,	r4	
  3a:	0e 0a       	.word	0x0a0e;	????	
  3c:	8c 05       	.word	0x058c;	????	
  3e:	2c 00       	.word	0x002c;	????	
  40:	00 00       	.word	0x0000;	????	
  42:	00 00       	.word	0x0000;	????	
  44:	00 00       	.word	0x0000;	????	
  46:	6e c2       	bic.b	#4,	r14	;r2 As==10
  48:	d6 00       	.word	0x00d6;	????	
  4a:	42 0e       	.word	0x0e42;	????	
  4c:	04 8f       	sub	r15,	r4	
  4e:	02 42       	mov	r2,	r2	
  50:	0e 06       	.word	0x060e;	????	
  52:	8e 03       	.word	0x038e;	????	
  54:	42 0e       	.word	0x0e42;	????	
  56:	08 8d       	sub	r13,	r8	
  58:	04 42       	mov	r2,	r4	
  5a:	0e 0a       	.word	0x0a0e;	????	
  5c:	8c 05       	.word	0x058c;	????	
  5e:	44 0e       	.word	0x0e44;	????	
  60:	10 02       	.word	0x0210;	????	
  62:	ae 0e       	.word	0x0eae;	????	
  64:	12 44 0e 14 	mov	5134(r4),r2	;0x140e(r4)
  68:	40 2e       	jc	$-894    	;abs 0xfcea
  6a:	04 46       	mov	r6,	r4	
  6c:	0e 10       	rrc	r14		
  6e:	1c 00       	.word	0x001c;	????	
  70:	00 00       	.word	0x0000;	????	
  72:	00 00       	.word	0x0000;	????	
  74:	00 00       	.word	0x0000;	????	
  76:	44 c3       	bic.b	#0,	r4	;r3 As==00
  78:	98 00       	.word	0x0098;	????	
  7a:	42 0e       	.word	0x0e42;	????	
  7c:	04 8f       	sub	r15,	r4	
  7e:	02 42       	mov	r2,	r2	
  80:	0e 06       	.word	0x060e;	????	
  82:	8e 03       	.word	0x038e;	????	
  84:	42 0e       	.word	0x0e42;	????	
  86:	08 8d       	sub	r13,	r8	
  88:	04 42       	mov	r2,	r4	
  8a:	0e 0a       	.word	0x0a0e;	????	
  8c:	8c 05       	.word	0x058c;	????	
  8e:	0e 00       	.word	0x000e;	????	
  90:	00 00       	.word	0x0000;	????	
  92:	ff ff ff ff 	and.b	@r15+,	-1(r15)	;0xffff(r15)
  96:	01 00       	.word	0x0001;	????	
  98:	01 7e       	subc	r14,	r1	
  9a:	00 0c       	.word	0x0c00;	????	
  9c:	01 02       	.word	0x0201;	????	
  9e:	80 01       	.word	0x0180;	????	
  a0:	0c 00       	.word	0x000c;	????	
  a2:	00 00       	.word	0x0000;	????	
  a4:	8e 00       	.word	0x008e;	????	
  a6:	00 00       	.word	0x0000;	????	
  a8:	dc c3 9e 00 	bic.b	#1,	158(r12);r3 As==01, 0x009e(r12)
  ac:	42 0e       	.word	0x0e42;	????	
  ae:	06 00       	.word	0x0006;	????	
  b0:	0e 00       	.word	0x000e;	????	
  b2:	00 00       	.word	0x0000;	????	
  b4:	ff ff ff ff 	and.b	@r15+,	-1(r15)	;0xffff(r15)
  b8:	01 00       	.word	0x0001;	????	
  ba:	01 7e       	subc	r14,	r1	
  bc:	00 0c       	.word	0x0c00;	????	
  be:	01 02       	.word	0x0201;	????	
  c0:	80 01       	.word	0x0180;	????	
  c2:	22 00       	.word	0x0022;	????	
  c4:	00 00       	.word	0x0000;	????	
  c6:	b0 00       	.word	0x00b0;	????	
  c8:	00 00       	.word	0x0000;	????	
  ca:	7a c4       	bic.b	@r4+,	r10	
  cc:	6a 00       	.word	0x006a;	????	
  ce:	42 0e       	.word	0x0e42;	????	
  d0:	04 8b       	sub	r11,	r4	
  d2:	02 42       	mov	r2,	r2	
  d4:	0e 06       	.word	0x060e;	????	
  d6:	8a 03       	.word	0x038a;	????	
  d8:	42 0e       	.word	0x0e42;	????	
  da:	08 89       	sub	r9,	r8	
  dc:	04 42       	mov	r2,	r4	
  de:	0e 0a       	.word	0x0a0e;	????	
  e0:	88 05       	.word	0x0588;	????	
  e2:	42 0e       	.word	0x0e42;	????	
  e4:	0c 87       	sub	r7,	r12	
  e6:	06 00       	.word	0x0006;	????	
  e8:	08 00       	.word	0x0008;	????	
  ea:	00 00       	.word	0x0000;	????	
  ec:	b0 00       	.word	0x00b0;	????	
  ee:	00 00       	.word	0x0000;	????	
  f0:	e4 c4 0e 00 	bic.b	@r4,	14(r4)	;0x000e(r4)
  f4:	0e 00       	.word	0x000e;	????	
  f6:	00 00       	.word	0x0000;	????	
  f8:	b0 00       	.word	0x00b0;	????	
  fa:	00 00       	.word	0x0000;	????	
  fc:	f2 c4 14 00 	bic.b	@r4+,	&0x0014	
 100:	42 0e       	.word	0x0e42;	????	
 102:	04 8b       	sub	r11,	r4	
 104:	02 00       	.word	0x0002;	????	
 106:	1a 00       	.word	0x001a;	????	
 108:	00 00       	.word	0x0000;	????	
 10a:	b0 00       	.word	0x00b0;	????	
 10c:	00 00       	.word	0x0000;	????	
 10e:	06 c5       	bic	r5,	r6	
 110:	7a 00       	.word	0x007a;	????	
 112:	42 0e       	.word	0x0e42;	????	
 114:	04 8b       	sub	r11,	r4	
 116:	02 42       	mov	r2,	r2	
 118:	0e 06       	.word	0x060e;	????	
 11a:	8a 03       	.word	0x038a;	????	
 11c:	42 0e       	.word	0x0e42;	????	
 11e:	08 89       	sub	r9,	r8	
 120:	04 44       	mov	r4,	r4	
 122:	0e 28       	jnc	$+30     	;abs 0x140
 124:	12 00       	.word	0x0012;	????	
 126:	00 00       	.word	0x0000;	????	
 128:	b0 00       	.word	0x00b0;	????	
 12a:	00 00       	.word	0x0000;	????	
 12c:	80 c5 3a 00 	bic	r5,	58(r0)	;PC rel. 0x0168
 130:	42 0e       	.word	0x0e42;	????	
 132:	04 8b       	sub	r11,	r4	
 134:	02 42       	mov	r2,	r2	
 136:	0e 06       	.word	0x060e;	????	
 138:	8a 03       	.word	0x038a;	????	
 13a:	1c 00       	.word	0x001c;	????	
 13c:	00 00       	.word	0x0000;	????	
 13e:	b0 00       	.word	0x00b0;	????	
 140:	00 00       	.word	0x0000;	????	
 142:	ba c5 2a 01 	bic	@r5+,	298(r10);0x012a(r10)
 146:	42 0e       	.word	0x0e42;	????	
 148:	04 8b       	sub	r11,	r4	
 14a:	02 42       	mov	r2,	r2	
 14c:	0e 06       	.word	0x060e;	????	
 14e:	8a 03       	.word	0x038a;	????	
 150:	42 0e       	.word	0x0e42;	????	
 152:	08 89       	sub	r9,	r8	
 154:	04 42       	mov	r2,	r4	
 156:	0e 0a       	.word	0x0a0e;	????	
 158:	88 05       	.word	0x0588;	????	
 15a:	0e 00       	.word	0x000e;	????	
 15c:	00 00       	.word	0x0000;	????	
 15e:	ff ff ff ff 	and.b	@r15+,	-1(r15)	;0xffff(r15)
 162:	01 00       	.word	0x0001;	????	
 164:	01 7e       	subc	r14,	r1	
 166:	00 0c       	.word	0x0c00;	????	
 168:	01 02       	.word	0x0201;	????	
 16a:	80 01       	.word	0x0180;	????	
 16c:	08 00       	.word	0x0008;	????	
 16e:	00 00       	.word	0x0000;	????	
 170:	5a 01       	.word	0x015a;	????	
 172:	00 00       	.word	0x0000;	????	
 174:	e4 c6 06 00 	bic.b	@r6,	6(r4)	;0x0006(r4)
 178:	08 00       	.word	0x0008;	????	
 17a:	00 00       	.word	0x0000;	????	
 17c:	5a 01       	.word	0x015a;	????	
 17e:	00 00       	.word	0x0000;	????	
 180:	ea c6 06 00 	bic.b	@r6,	6(r10)	;0x0006(r10)
 184:	0e 00       	.word	0x000e;	????	
 186:	00 00       	.word	0x0000;	????	
 188:	ff ff ff ff 	and.b	@r15+,	-1(r15)	;0xffff(r15)
 18c:	01 00       	.word	0x0001;	????	
 18e:	01 7e       	subc	r14,	r1	
 190:	00 0c       	.word	0x0c00;	????	
 192:	01 02       	.word	0x0201;	????	
 194:	80 01       	.word	0x0180;	????	
 196:	08 00       	.word	0x0008;	????	
 198:	00 00       	.word	0x0000;	????	
 19a:	84 01       	.word	0x0184;	????	
 19c:	00 00       	.word	0x0000;	????	
 19e:	f0 c6 2a 01 	bic.b	@r6+,	298(r0)	;PC rel. 0x02ca
 1a2:	08 00       	.word	0x0008;	????	
 1a4:	00 00       	.word	0x0000;	????	
 1a6:	84 01       	.word	0x0184;	????	
 1a8:	00 00       	.word	0x0000;	????	
 1aa:	1a c8 10 00 	bic	16(r8),	r10	;0x0010(r8)
 1ae:	08 00       	.word	0x0008;	????	
 1b0:	00 00       	.word	0x0000;	????	
 1b2:	84 01       	.word	0x0184;	????	
 1b4:	00 00       	.word	0x0000;	????	
 1b6:	2a c8       	bic	@r8,	r10	
 1b8:	06 00       	.word	0x0006;	????	
 1ba:	08 00       	.word	0x0008;	????	
 1bc:	00 00       	.word	0x0000;	????	
 1be:	84 01       	.word	0x0184;	????	
 1c0:	00 00       	.word	0x0000;	????	
 1c2:	30 c8       	bic	@r8+,	r0	
 1c4:	0e 00       	.word	0x000e;	????	
 1c6:	08 00       	.word	0x0008;	????	
 1c8:	00 00       	.word	0x0000;	????	
 1ca:	84 01       	.word	0x0184;	????	
 1cc:	00 00       	.word	0x0000;	????	
 1ce:	3e c8       	bic	@r8+,	r14	
 1d0:	06 00       	.word	0x0006;	????	
 1d2:	08 00       	.word	0x0008;	????	
 1d4:	00 00       	.word	0x0000;	????	
 1d6:	84 01       	.word	0x0184;	????	
 1d8:	00 00       	.word	0x0000;	????	
 1da:	44 c8       	bic.b	r8,	r4	
 1dc:	0e 00       	.word	0x000e;	????	

Disassembly of section .debug_str:

00000000 <.debug_str>:
   0:	70 72       	subc.b	#8,	r0	;r2 As==11
   2:	69 6e       	addc.b	@r14,	r9	
   4:	74 43       	mov.b	#-1,	r4	;r3 As==11
   6:	6f 75       	subc.b	@r5,	r15	
   8:	6e 74       	subc.b	@r4,	r14	
   a:	65 72       	subc.b	#4,	r5	;r2 As==10
   c:	00 63       	adc	r0		
   e:	6f 6c       	addc.b	@r12,	r15	
  10:	6f 72       	subc.b	#4,	r15	;r2 As==10
  12:	73 00       	.word	0x0073;	????	
  14:	74 69       	addc.b	@r9+,	r4	
  16:	6d 65       	addc.b	@r5,	r13	
  18:	72 30       	jn	$+230    	;abs 0xfe
  1a:	00 74       	subc	r4,	r0	
  1c:	69 6d       	addc.b	@r13,	r9	
  1e:	65 72       	subc.b	#4,	r5	;r2 As==10
  20:	31 00       	.word	0x0031;	????	
  22:	50 31       	jn	$+674    	;abs 0x2c4
  24:	4f 55       	add.b	r5,	r15	
  26:	54 5f 50 61 	add.b	24912(r15),r4	;0x6150(r15)
  2a:	74 74       	subc.b	@r4+,	r4	
  2c:	65 72       	subc.b	#4,	r5	;r2 As==10
  2e:	6e 73       	subc.b	#2,	r14	;r3 As==10
  30:	00 5f       	add	r15,	r0	
  32:	5f 50 31 44 	add.b	17457(r0),r15	;PC rel. 0x4465
  36:	49 52       	add.b	r2,	r9	
  38:	00 62       	addc	r2,	r0	
  3a:	6c 75       	subc.b	@r5,	r12	
  3c:	65 00       	.word	0x0065;	????	
  3e:	5f 5f 50 31 	add.b	12624(r15),r15	;0x3150(r15)
  42:	53 45       	.word	0x4553;	????	Illegal as 2-op instr
  44:	4c 32       	jn	$-870    	;abs 0xfcde
  46:	00 5f       	add	r15,	r0	
  48:	5f 50 31 53 	add.b	21297(r0),r15	;PC rel. 0x537b
  4c:	45 4c       	mov.b	r12,	r5	
  4e:	00 5f       	add	r15,	r0	
  50:	5f 54 41 31 	add.b	12609(r4),r15	;0x3141(r4)
  54:	43 43       	clr.b	#0		;r3 As==00
  56:	54 4c 31 00 	mov.b	49(r12),r4	;0x0031(r12)
  5a:	5f 5f 50 31 	add.b	12624(r15),r15	;0x3150(r15)
  5e:	49 46       	mov.b	r6,	r9	
  60:	47 00       	.word	0x0047;	????	
  62:	50 32       	jn	$-862    	;abs 0xfd04
  64:	4f 55       	add.b	r5,	r15	
  66:	54 5f 50 61 	add.b	24912(r15),r4	;0x6150(r15)
  6a:	74 74       	subc.b	@r4+,	r4	
  6c:	65 72       	subc.b	#4,	r5	;r2 As==10
  6e:	6e 73       	subc.b	#2,	r14	;r3 As==10
  70:	00 75       	subc	r5,	r0	
  72:	6e 73       	subc.b	#2,	r14	;r3 As==10
  74:	69 67       	addc.b	@r7,	r9	
  76:	6e 65       	addc.b	@r5,	r14	
  78:	64 20       	jnz	$+202    	;abs 0x142
  7a:	63 68       	.word	0x6863;	????	Illegal as 2-op instr
  7c:	61 72       	subc.b	#4,	r1	;r2 As==10
  7e:	00 63       	adc	r0		
  80:	6f 6c       	addc.b	@r12,	r15	
  82:	6f 72       	subc.b	#4,	r15	;r2 As==10
  84:	00 5f       	add	r15,	r0	
  86:	5f 50 31 49 	add.b	18737(r0),r15	;PC rel. 0x49b9
  8a:	45 00       	.word	0x0045;	????	
  8c:	5f 5f 50 31 	add.b	12624(r15),r15	;0x3150(r15)
  90:	4f 55       	add.b	r5,	r15	
  92:	54 00       	.word	0x0054;	????	
  94:	68 65       	addc.b	@r5,	r8	
  96:	78 56       	add.b	@r6+,	r8	
  98:	61 6c       	addc.b	@r12,	r1	
  9a:	75 65       	addc.b	@r5+,	r5	
  9c:	00 5f       	add	r15,	r0	
  9e:	5f 54 41 30 	add.b	12353(r4),r15	;0x3041(r4)
  a2:	43 54       	.word	0x5443;	????	Illegal as 2-op instr
  a4:	4c 00       	.word	0x004c;	????	
  a6:	67 72       	subc.b	#4,	r7	;r2 As==10
  a8:	65 65       	addc.b	@r5,	r5	
  aa:	6e 00       	.word	0x006e;	????	
  ac:	5f 5f 54 41 	add.b	16724(r15),r15	;0x4154(r15)
  b0:	30 43       	br	#-1		;r3 As==11
  b2:	43 54       	.word	0x5443;	????	Illegal as 2-op instr
  b4:	4c 30       	jn	$+154    	;abs 0x14e
  b6:	00 5f       	add	r15,	r0	
  b8:	5f 54 41 30 	add.b	12353(r4),r15	;0x3041(r4)
  bc:	43 43       	clr.b	#0		;r3 As==00
  be:	54 4c 31 00 	mov.b	49(r12),r4	;0x0031(r12)
  c2:	5f 5f 50 31 	add.b	12624(r15),r15	;0x3150(r15)
  c6:	49 4e       	mov.b	r14,	r9	
  c8:	00 2f       	jc	$-510    	;abs 0xfeca
  ca:	68 6f       	addc.b	@r15,	r8	
  cc:	6d 65       	addc.b	@r5,	r13	
  ce:	2f 6a       	addc	@r10,	r15	
  d0:	6a 77       	subc.b	@r7,	r10	
  d2:	61 72       	subc.b	#4,	r1	;r2 As==10
  d4:	72 65       	addc.b	@r5+,	r2	
  d6:	6e 34       	jge	$+222    	;abs 0x1b4
  d8:	34 2f       	jc	$-406    	;abs 0xff42
  da:	61 35       	jge	$+708    	;abs 0x39e
  dc:	00 41       	br	r1		
  de:	44 43       	clr.b	r4		
  e0:	31 30       	jn	$+100    	;abs 0x144
  e2:	5f 76 61 6c 	subc.b	27745(r6),r15	;0x6c61(r6)
  e6:	75 65       	addc.b	@r5+,	r5	
  e8:	00 5f       	add	r15,	r0	
  ea:	5f 50 32 53 	add.b	21298(r0),r15	;PC rel. 0x541e
  ee:	45 4c       	mov.b	r12,	r5	
  f0:	00 5f       	add	r15,	r0	
  f2:	5f 43       	mov.b	#1,	r15	;r3 As==01
  f4:	41 4c       	mov.b	r12,	r1	
  f6:	42 43       	clr.b	r2		
  f8:	31 5f       	add	@r15+,	r1	
  fa:	31 4d       	mov	@r13+,	r1	
  fc:	48 5a       	add.b	r10,	r8	
  fe:	00 5f       	add	r15,	r0	
 100:	5f 50 32 53 	add.b	21298(r0),r15	;PC rel. 0x5434
 104:	45 4c       	mov.b	r12,	r5	
 106:	32 00       	.word	0x0032;	????	
 108:	61 35       	jge	$+708    	;abs 0x3cc
 10a:	2e 63       	addc	#2,	r14	;r3 As==10
 10c:	00 6d       	addc	r13,	r0	
 10e:	61 69       	addc.b	@r9,	r1	
 110:	6e 00       	.word	0x006e;	????	
 112:	5f 5f 54 41 	add.b	16724(r15),r15	;0x4154(r15)
 116:	30 43       	br	#-1		;r3 As==11
 118:	43 52       	.word	0x5243;	????	Illegal as 2-op instr
 11a:	30 00       	.word	0x0030;	????	
 11c:	5f 5f 54 41 	add.b	16724(r15),r15	;0x4154(r15)
 120:	30 43       	br	#-1		;r3 As==11
 122:	43 52       	.word	0x5243;	????	Illegal as 2-op instr
 124:	31 00       	.word	0x0031;	????	
 126:	63 6f       	.word	0x6f63;	????	Illegal as 2-op instr
 128:	6c 6f       	addc.b	@r15,	r12	
 12a:	72 50 61 74 	add.b	#29793,	r2	;#0x7461
 12e:	74 65       	addc.b	@r5+,	r4	
 130:	72 6e       	addc.b	@r14+,	r2	
 132:	73 00       	.word	0x0073;	????	
 134:	5f 5f 50 32 	add.b	12880(r15),r15	;0x3250(r15)
 138:	44 49       	mov.b	r9,	r4	
 13a:	52 00       	.word	0x0052;	????	
 13c:	5f 5f 57 44 	add.b	17495(r15),r15	;0x4457(r15)
 140:	54 43       	mov.b	#1,	r4	;r3 As==01
 142:	54 4c 00 5f 	mov.b	24320(r12),r4	;0x5f00(r12)
 146:	5f 50 32 4f 	add.b	20274(r0),r15	;PC rel. 0x507a
 14a:	55 54 00 5f 	add.b	24320(r4),r5	;0x5f00(r4)
 14e:	5f 44 43 4f 	mov.b	20291(r4),r15	;0x4f43(r4)
 152:	43 54       	.word	0x5443;	????	Illegal as 2-op instr
 154:	4c 00       	.word	0x004c;	????	
 156:	47 4e       	mov.b	r14,	r7	
 158:	55 20       	jnz	$+172    	;abs 0x204
 15a:	43 20       	jnz	$+136    	;abs 0x1e2
 15c:	34 2e       	jc	$-918    	;abs 0xfdc6
 15e:	36 2e       	jc	$-914    	;abs 0xfdcc
 160:	33 20       	jnz	$+104    	;abs 0x1c8
 162:	32 30       	jn	$+102    	;abs 0x1c8
 164:	31 32       	jn	$-924    	;abs 0xfdc8
 166:	30 33       	jn	$-414    	;abs 0xffc8
 168:	30 31       	jn	$+610    	;abs 0x3ca
 16a:	20 28       	jnc	$+66     	;abs 0x1ac
 16c:	6d 73       	subc.b	#2,	r13	;r3 As==10
 16e:	70 67       	addc.b	@r7+,	r0	
 170:	63 63       	.word	0x6363;	????	Illegal as 2-op instr
 172:	20 4c       	br	@r12		
 174:	54 53       	inc.b	r4		
 176:	20 32       	jn	$-958    	;abs 0xfdb8
 178:	30 31       	jn	$+610    	;abs 0x3da
 17a:	32 30       	jn	$+102    	;abs 0x1e0
 17c:	34 30       	jn	$+106    	;abs 0x1e6
 17e:	36 20       	jnz	$+110    	;abs 0x1ec
 180:	75 6e       	addc.b	@r14+,	r5	
 182:	70 61       	addc.b	@r1+,	r0	
 184:	74 63       	addc.b	#-1,	r4	;r3 As==11
 186:	68 65       	addc.b	@r5,	r8	
 188:	64 29       	jnc	$+714    	;abs 0x452
 18a:	00 69       	addc	r9,	r0	
 18c:	6e 64       	addc.b	@r4,	r14	
 18e:	65 78       	subc.b	@r8,	r5	
 190:	00 5f       	add	r15,	r0	
 192:	5f 54 41 31 	add.b	12609(r4),r15	;0x3141(r4)
 196:	43 43       	clr.b	#0		;r3 As==00
 198:	54 4c 32 00 	mov.b	50(r12),r4	;0x0032(r12)
 19c:	5f 5f 42 43 	add.b	17218(r15),r15	;0x4342(r15)
 1a0:	53 43       	.word	0x4353;	????	Illegal as 2-op instr
 1a2:	54 4c 31 00 	mov.b	49(r12),r4	;0x0031(r12)
 1a6:	5f 5f 54 41 	add.b	16724(r15),r15	;0x4154(r15)
 1aa:	31 43       	mov	#-1,	r1	;r3 As==11
 1ac:	43 52       	.word	0x5243;	????	Illegal as 2-op instr
 1ae:	30 00       	.word	0x0030;	????	
 1b0:	5f 5f 50 31 	add.b	12624(r15),r15	;0x3150(r15)
 1b4:	49 45       	mov.b	r5,	r9	
 1b6:	53 00       	.word	0x0053;	????	
 1b8:	5f 5f 54 41 	add.b	16724(r15),r15	;0x4154(r15)
 1bc:	31 43       	mov	#-1,	r1	;r3 As==11
 1be:	43 52       	.word	0x5243;	????	Illegal as 2-op instr
 1c0:	32 00       	.word	0x0032;	????	
 1c2:	63 75       	.word	0x7563;	????	Illegal as 2-op instr
 1c4:	72 73       	subc.b	#-1,	r2	;r3 As==11
 1c6:	6f 72       	subc.b	#4,	r15	;r2 As==10
 1c8:	00 62       	addc	r2,	r0	
 1ca:	75 74       	subc.b	@r4+,	r5	
 1cc:	74 6f       	addc.b	@r15+,	r4	
 1ce:	6e 00       	.word	0x006e;	????	
 1d0:	5f 5f 54 41 	add.b	16724(r15),r15	;0x4154(r15)
 1d4:	31 43       	mov	#-1,	r1	;r3 As==11
 1d6:	54 4c 00 5f 	mov.b	24320(r12),r4	;0x5f00(r12)
 1da:	5f 54 41 31 	add.b	12609(r4),r15	;0x3141(r4)
 1de:	43 43       	clr.b	#0		;r3 As==00
 1e0:	52 31       	jn	$+678    	;abs 0x486
 1e2:	00 5f       	add	r15,	r0	
 1e4:	5f 43       	mov.b	#1,	r15	;r3 As==01
 1e6:	41 4c       	mov.b	r12,	r1	
 1e8:	44 43       	clr.b	r4		
 1ea:	4f 5f       	rla.b	r15		
 1ec:	31 4d       	mov	@r13+,	r1	
 1ee:	48 5a       	add.b	r10,	r8	
 1f0:	00 5f       	add	r15,	r0	
 1f2:	5f 54 41 31 	add.b	12609(r4),r15	;0x3141(r4)
 1f6:	43 43       	clr.b	#0		;r3 As==00
 1f8:	54 4c 30 00 	mov.b	48(r12),r4	;0x0030(r12)
 1fc:	5f 5f 41 44 	add.b	17473(r15),r15	;0x4441(r15)
 200:	43 31       	jn	$+648    	;abs 0x488
 202:	30 43       	br	#-1		;r3 As==11
 204:	54 4c 31 00 	mov.b	49(r12),r4	;0x0031(r12)
 208:	5f 5f 41 44 	add.b	17473(r15),r15	;0x4441(r15)
 20c:	43 31       	jn	$+648    	;abs 0x494
 20e:	30 44       	br	@r4+		
 210:	54 43       	mov.b	#1,	r4	;r3 As==01
 212:	31 00       	.word	0x0031;	????	
 214:	5f 5f 41 44 	add.b	17473(r15),r15	;0x4441(r15)
 218:	43 31       	jn	$+648    	;abs 0x4a0
 21a:	30 44       	br	@r4+		
 21c:	54 43       	mov.b	#1,	r4	;r3 As==01
 21e:	30 00       	.word	0x0030;	????	
 220:	70 6f       	addc.b	@r15+,	r0	
 222:	69 6e       	addc.b	@r14,	r9	
 224:	74 65       	addc.b	@r5+,	r4	
 226:	72 00       	.word	0x0072;	????	
 228:	5f 5f 41 44 	add.b	17473(r15),r15	;0x4441(r15)
 22c:	43 31       	jn	$+648    	;abs 0x4b4
 22e:	30 41       	ret			
 230:	45 30       	jn	$+140    	;abs 0x2bc
 232:	00 63       	adc	r0		
 234:	68 61       	addc.b	@r1,	r8	
 236:	6e 6e       	addc.b	@r14,	r14	
 238:	65 6c       	addc.b	@r12,	r5	
 23a:	00 64       	addc	r4,	r0	
 23c:	74 63       	addc.b	#-1,	r4	;r3 As==11
 23e:	2e 63       	addc	#2,	r14	;r3 As==10
 240:	00 5f       	add	r15,	r0	
 242:	5f 41 44 43 	mov.b	17220(r1),r15	;0x4344(r1)
 246:	31 30       	jn	$+100    	;abs 0x2aa
 248:	53 41       	.word	0x4153;	????	Illegal as 2-op instr
 24a:	00 69       	addc	r9,	r0	
 24c:	6e 69       	addc.b	@r9,	r14	
 24e:	74 69       	addc.b	@r9+,	r4	
 250:	61 6c       	addc.b	@r12,	r1	
 252:	69 7a       	subc.b	@r10,	r9	
 254:	65 5f       	add.b	@r15,	r5	
 256:	64 74       	subc.b	@r4,	r4	
 258:	63 00       	.word	0x0063;	????	
 25a:	5f 5f 41 44 	add.b	17473(r15),r15	;0x4441(r15)
 25e:	43 31       	jn	$+648    	;abs 0x4e6
 260:	30 43       	br	#-1		;r3 As==11
 262:	54 4c 30 00 	mov.b	48(r12),r4	;0x0030(r12)
 266:	6c 69       	addc.b	@r9,	r12	
 268:	6e 65       	addc.b	@r5,	r14	
 26a:	00 2f       	jc	$-510    	;abs 0x6c
 26c:	68 6f       	addc.b	@r15,	r8	
 26e:	6d 65       	addc.b	@r5,	r13	
 270:	2f 6a       	addc	@r10,	r15	
 272:	6a 77       	subc.b	@r7,	r10	
 274:	61 72       	subc.b	#4,	r1	;r2 As==10
 276:	72 65       	addc.b	@r5+,	r2	
 278:	6e 34       	jge	$+222    	;abs 0x356
 27a:	34 2f       	jc	$-406    	;abs 0xe4
 27c:	44 6f       	addc.b	r15,	r4	
 27e:	77 6e       	addc.b	@r14+,	r7	
 280:	6c 6f       	addc.b	@r15,	r12	
 282:	61 64       	addc.b	@r4,	r1	
 284:	73 2f       	jc	$-280    	;abs 0x16c
 286:	6c 69       	addc.b	@r9,	r12	
 288:	62 65       	addc.b	@r5,	r2	
 28a:	6d 62       	addc.b	#4,	r13	;r2 As==10
 28c:	2f 6c       	addc	@r12,	r15	
 28e:	69 62       	addc.b	#4,	r9	;r2 As==10
 290:	63 6f       	.word	0x6f63;	????	Illegal as 2-op instr
 292:	6e 69       	addc.b	@r9,	r14	
 294:	6f 2f       	jc	$-288    	;abs 0x174
 296:	73 72       	.word	0x7273;	????	Illegal as 2-op instr
 298:	63 00       	.word	0x0063;	????	
 29a:	63 69       	.word	0x6963;	????	Illegal as 2-op instr
 29c:	6f 5f       	add.b	@r15,	r15	
 29e:	70 72       	subc.b	#8,	r0	;r2 As==11
 2a0:	69 6e       	addc.b	@r14,	r9	
 2a2:	74 62       	addc.b	#8,	r4	;r2 As==11
 2a4:	00 63       	adc	r0		
 2a6:	69 6f       	addc.b	@r15,	r9	
 2a8:	5f 70 72 69 	subc.b	26994(r0),r15	;PC rel. 0x6c1c
 2ac:	6e 74       	subc.b	@r4,	r14	
 2ae:	66 00       	.word	0x0066;	????	
 2b0:	5f 5f 62 75 	add.b	30050(r15),r15	;0x7562(r15)
 2b4:	69 6c       	addc.b	@r12,	r9	
 2b6:	74 69       	addc.b	@r9+,	r4	
 2b8:	6e 5f       	add.b	@r15,	r14	
 2ba:	76 61       	addc.b	@r1+,	r6	
 2bc:	5f 6c 69 73 	addc.b	29545(r12),r15	;0x7369(r12)
 2c0:	74 00       	.word	0x0074;	????	
 2c2:	63 69       	.word	0x6963;	????	Illegal as 2-op instr
 2c4:	6f 5f       	add.b	@r15,	r15	
 2c6:	70 72       	subc.b	#8,	r0	;r2 As==11
 2c8:	69 6e       	addc.b	@r14,	r9	
 2ca:	74 69       	addc.b	@r9+,	r4	
 2cc:	00 5f       	add	r15,	r0	
 2ce:	78 74       	subc.b	@r4+,	r8	
 2d0:	6f 61       	addc.b	@r1,	r15	
 2d2:	00 62       	addc	r2,	r0	
 2d4:	61 64       	addc.b	@r4,	r1	
 2d6:	5f 66 6d 74 	addc.b	29805(r6),r15	;0x746d(r6)
 2da:	00 73       	sbc	r0		
 2dc:	69 7a       	subc.b	@r10,	r9	
 2de:	65 00       	.word	0x0065;	????	
 2e0:	5f 70 75 74 	subc.b	29813(r0),r15	;PC rel. 0x7757
 2e4:	68 00       	.word	0x0068;	????	
 2e6:	63 6f       	.word	0x6f63;	????	Illegal as 2-op instr
 2e8:	6e 69       	addc.b	@r9,	r14	
 2ea:	6f 2e       	jc	$-800    	;abs 0xffca
 2ec:	63 00       	.word	0x0063;	????	
 2ee:	66 6f       	addc.b	@r15,	r6	
 2f0:	72 6d       	addc.b	@r13+,	r2	
 2f2:	61 74       	subc.b	@r4,	r1	
 2f4:	00 63       	adc	r0		
 2f6:	69 6f       	addc.b	@r15,	r9	
 2f8:	5f 70 72 69 	subc.b	26994(r0),r15	;PC rel. 0x6c6c
 2fc:	6e 74       	subc.b	@r4,	r14	
 2fe:	00 5f       	add	r15,	r0	
 300:	5f 67 6e 75 	addc.b	30062(r7),r15	;0x756e(r7)
 304:	63 5f       	.word	0x5f63;	????	Illegal as 2-op instr
 306:	76 61       	addc.b	@r1+,	r6	
 308:	5f 6c 69 73 	addc.b	29545(r12),r15	;0x7369(r12)
 30c:	74 00       	.word	0x0074;	????	
 30e:	62 75       	subc.b	@r5,	r2	
 310:	66 66       	addc.b	@r6,	r6	
 312:	65 72       	subc.b	#4,	r5	;r2 As==10
 314:	00 63       	adc	r0		
 316:	69 6f       	addc.b	@r15,	r9	
 318:	5f 67 65 74 	addc.b	29797(r7),r15	;0x7465(r7)
 31c:	63 00       	.word	0x0063;	????	
 31e:	63 69       	.word	0x6963;	????	Illegal as 2-op instr
 320:	6f 5f       	add.b	@r15,	r15	
 322:	70 72       	subc.b	#8,	r0	;r2 As==11
 324:	69 6e       	addc.b	@r14,	r9	
 326:	74 63       	addc.b	#-1,	r4	;r3 As==11
 328:	00 63       	adc	r0		
 32a:	6f 6e       	addc.b	@r14,	r15	
 32c:	69 6f       	addc.b	@r15,	r9	
 32e:	5f 73       	subc.b	#1,	r15	;r3 As==01
 330:	65 72       	subc.b	#4,	r5	;r2 As==10
 332:	69 61       	addc.b	@r1,	r9	
 334:	6c 2e       	jc	$-806    	;abs 0xe
 336:	63 00       	.word	0x0063;	????	
 338:	63 6c       	.word	0x6c63;	????	Illegal as 2-op instr
 33a:	6b 73       	subc.b	#2,	r11	;r3 As==10
 33c:	70 65       	addc.b	@r5+,	r0	
 33e:	65 64       	addc.b	@r4,	r5	
 340:	00 73       	sbc	r0		
 342:	65 72       	subc.b	#4,	r5	;r2 As==10
 344:	69 61       	addc.b	@r1,	r9	
 346:	6c 5f       	add.b	@r15,	r12	
 348:	72 65       	addc.b	@r5+,	r2	
 34a:	63 76       	.word	0x7663;	????	Illegal as 2-op instr
 34c:	5f 62 6c 6f 	addc.b	&0x6f6c,r15	
 350:	63 6b       	.word	0x6b63;	????	Illegal as 2-op instr
 352:	69 6e       	addc.b	@r14,	r9	
 354:	67 00       	.word	0x0067;	????	
 356:	73 65       	.word	0x6573;	????	Illegal as 2-op instr
 358:	72 69       	addc.b	@r9+,	r2	
 35a:	61 6c       	addc.b	@r12,	r1	
 35c:	5f 75 73 63 	subc.b	25459(r5),r15	;0x6373(r5)
 360:	69 5f       	add.b	@r15,	r9	
 362:	6d 73       	subc.b	#2,	r13	;r3 As==10
 364:	70 34       	jge	$+226    	;abs 0x446
 366:	33 30       	jn	$+104    	;abs 0x3ce
 368:	2e 63       	addc	#2,	r14	;r3 As==10
 36a:	00 5f       	add	r15,	r0	
 36c:	5f 55 43 41 	add.b	16707(r5),r15	;0x4143(r5)
 370:	30 52       	add	#8,	r0	;r2 As==11
 372:	58 42 55 46 	mov.b	&0x4655,r8	
 376:	00 5f       	add	r15,	r0	
 378:	5f 55 43 41 	add.b	16707(r5),r15	;0x4143(r5)
 37c:	30 43       	br	#-1		;r3 As==11
 37e:	54 4c 31 00 	mov.b	49(r12),r4	;0x0031(r12)
 382:	73 65       	.word	0x6573;	????	Illegal as 2-op instr
 384:	72 69       	addc.b	@r9+,	r2	
 386:	61 6c       	addc.b	@r12,	r1	
 388:	5f 72 65 63 	subc.b	&0x6365,r15	
 38c:	76 00       	.word	0x0076;	????	
 38e:	73 65       	.word	0x6573;	????	Illegal as 2-op instr
 390:	72 69       	addc.b	@r9+,	r2	
 392:	61 6c       	addc.b	@r12,	r1	
 394:	5f 73       	subc.b	#1,	r15	;r3 As==01
 396:	65 6e       	addc.b	@r14,	r5	
 398:	64 00       	.word	0x0064;	????	
 39a:	64 61       	addc.b	@r1,	r4	
 39c:	74 61       	addc.b	@r1+,	r4	
 39e:	00 62       	addc	r2,	r0	
 3a0:	61 75       	subc.b	@r5,	r1	
 3a2:	64 72       	subc.b	#4,	r4	;r2 As==10
 3a4:	61 74       	subc.b	@r4,	r1	
 3a6:	65 00       	.word	0x0065;	????	
 3a8:	73 65       	.word	0x6573;	????	Illegal as 2-op instr
 3aa:	72 69       	addc.b	@r9+,	r2	
 3ac:	61 6c       	addc.b	@r12,	r1	
 3ae:	5f 63       	addc.b	#1,	r15	;r3 As==01
 3b0:	6c 6b       	addc.b	@r11,	r12	
 3b2:	5f 69 6e 69 	addc.b	26990(r9),r15	;0x696e(r9)
 3b6:	74 00       	.word	0x0074;	????	
 3b8:	6c 6f       	addc.b	@r15,	r12	
 3ba:	6e 67       	addc.b	@r7,	r14	
 3bc:	20 6c       	addc	@r12,	r0	
 3be:	6f 6e       	addc.b	@r14,	r15	
 3c0:	67 20       	jnz	$+208    	;abs 0x490
 3c2:	75 6e       	addc.b	@r14+,	r5	
 3c4:	73 69       	.word	0x6973;	????	Illegal as 2-op instr
 3c6:	67 6e       	addc.b	@r14,	r7	
 3c8:	65 64       	addc.b	@r4,	r5	
 3ca:	20 69       	addc	@r9,	r0	
 3cc:	6e 74       	subc.b	@r4,	r14	
 3ce:	00 5f       	add	r15,	r0	
 3d0:	5f 55 43 41 	add.b	16707(r5),r15	;0x4143(r5)
 3d4:	30 54       	add	@r4+,	r0	
 3d6:	58 42 55 46 	mov.b	&0x4655,r8	
 3da:	00 2f       	jc	$-510    	;abs 0x1dc
 3dc:	68 6f       	addc.b	@r15,	r8	
 3de:	6d 65       	addc.b	@r5,	r13	
 3e0:	2f 6a       	addc	@r10,	r15	
 3e2:	6a 77       	subc.b	@r7,	r10	
 3e4:	61 72       	subc.b	#4,	r1	;r2 As==10
 3e6:	72 65       	addc.b	@r5+,	r2	
 3e8:	6e 34       	jge	$+222    	;abs 0x4c6
 3ea:	34 2f       	jc	$-406    	;abs 0x254
 3ec:	44 6f       	addc.b	r15,	r4	
 3ee:	77 6e       	addc.b	@r14+,	r7	
 3f0:	6c 6f       	addc.b	@r15,	r12	
 3f2:	61 64       	addc.b	@r4,	r1	
 3f4:	73 2f       	jc	$-280    	;abs 0x2dc
 3f6:	6c 69       	addc.b	@r9,	r12	
 3f8:	62 65       	addc.b	@r5,	r2	
 3fa:	6d 62       	addc.b	#4,	r13	;r2 As==10
 3fc:	2f 6c       	addc	@r12,	r15	
 3fe:	69 62       	addc.b	#4,	r9	;r2 As==10
 400:	73 65       	.word	0x6573;	????	Illegal as 2-op instr
 402:	72 69       	addc.b	@r9+,	r2	
 404:	61 6c       	addc.b	@r12,	r1	
 406:	2f 73       	subc	#2,	r15	;r3 As==10
 408:	72 63       	addc.b	#-1,	r2	;r3 As==11
 40a:	00 73       	sbc	r0		
 40c:	65 72       	subc.b	#4,	r5	;r2 As==10
 40e:	69 61       	addc.b	@r1,	r9	
 410:	6c 5f       	add.b	@r15,	r12	
 412:	69 6e       	addc.b	@r14,	r9	
 414:	69 74       	subc.b	@r4,	r9	
 416:	00 6c       	addc	r12,	r0	
 418:	6f 6e       	addc.b	@r14,	r15	
 41a:	67 20       	jnz	$+208    	;abs 0x4ea
 41c:	6c 6f       	addc.b	@r15,	r12	
 41e:	6e 67       	addc.b	@r7,	r14	
 420:	20 69       	addc	@r9,	r0	
 422:	6e 74       	subc.b	@r4,	r14	
 424:	00 5f       	add	r15,	r0	
 426:	5f 55 43 41 	add.b	16707(r5),r15	;0x4143(r5)
 42a:	30 4d       	br	@r13+		
 42c:	43 54       	.word	0x5443;	????	Illegal as 2-op instr
 42e:	4c 00       	.word	0x004c;	????	
 430:	73 65       	.word	0x6573;	????	Illegal as 2-op instr
 432:	72 69       	addc.b	@r9+,	r2	
 434:	61 6c       	addc.b	@r12,	r1	
 436:	5f 73       	subc.b	#1,	r15	;r3 As==01
 438:	65 6e       	addc.b	@r14,	r5	
 43a:	64 5f       	add.b	@r15,	r4	
 43c:	62 6c       	addc.b	@r12,	r2	
 43e:	6f 63       	addc.b	#2,	r15	;r3 As==10
 440:	6b 69       	addc.b	@r9,	r11	
 442:	6e 67       	addc.b	@r7,	r14	
 444:	00 5f       	add	r15,	r0	
 446:	5f 49 46 47 	mov.b	18246(r9),r15	;0x4746(r9)
 44a:	32 00       	.word	0x0032;	????	
 44c:	5f 5f 55 43 	add.b	17237(r15),r15	;0x4355(r15)
 450:	41 30       	jn	$+132    	;abs 0x4d4
 452:	42 52       	rla.b	r2		
 454:	30 00       	.word	0x0030;	????	
 456:	5f 5f 55 43 	add.b	17237(r15),r15	;0x4355(r15)
 45a:	41 30       	jn	$+132    	;abs 0x4de
 45c:	42 52       	rla.b	r2		
 45e:	31 00       	.word	0x0031;	????	

Disassembly of section .debug_loc:

00000000 <.debug_loc>:
   0:	3e c1       	bic	@r1+,	r14	
   2:	40 c1       	bic.b	r1,	r0	
   4:	02 00       	.word	0x0002;	????	
   6:	71 00       	.word	0x0071;	????	
   8:	40 c1       	bic.b	r1,	r0	
   a:	42 c1       	bic.b	r1,	r2	
   c:	02 00       	.word	0x0002;	????	
   e:	71 02       	.word	0x0271;	????	
  10:	42 c1       	bic.b	r1,	r2	
  12:	44 c1       	bic.b	r1,	r4	
  14:	02 00       	.word	0x0002;	????	
  16:	71 04       	.word	0x0471;	????	
  18:	44 c1       	bic.b	r1,	r4	
  1a:	46 c1       	bic.b	r1,	r6	
  1c:	02 00       	.word	0x0002;	????	
  1e:	71 06       	.word	0x0671;	????	
  20:	46 c1       	bic.b	r1,	r6	
  22:	6e c2       	bic.b	#4,	r14	;r2 As==10
  24:	02 00       	.word	0x0002;	????	
  26:	71 08       	.word	0x0871;	????	
  28:	00 00       	.word	0x0000;	????	
  2a:	00 00       	.word	0x0000;	????	
  2c:	6e c2       	bic.b	#4,	r14	;r2 As==10
  2e:	70 c2       	bic.b	#8,	r0	;r2 As==11
  30:	02 00       	.word	0x0002;	????	
  32:	71 00       	.word	0x0071;	????	
  34:	70 c2       	bic.b	#8,	r0	;r2 As==11
  36:	72 c2       	bic.b	#8,	r2	;r2 As==11
  38:	02 00       	.word	0x0002;	????	
  3a:	71 02       	.word	0x0271;	????	
  3c:	72 c2       	bic.b	#8,	r2	;r2 As==11
  3e:	74 c2       	bic.b	#8,	r4	;r2 As==11
  40:	02 00       	.word	0x0002;	????	
  42:	71 04       	.word	0x0471;	????	
  44:	74 c2       	bic.b	#8,	r4	;r2 As==11
  46:	76 c2       	bic.b	#8,	r6	;r2 As==11
  48:	02 00       	.word	0x0002;	????	
  4a:	71 06       	.word	0x0671;	????	
  4c:	76 c2       	bic.b	#8,	r6	;r2 As==11
  4e:	7a c2       	bic.b	#8,	r10	;r2 As==11
  50:	02 00       	.word	0x0002;	????	
  52:	71 08       	.word	0x0871;	????	
  54:	7a c2       	bic.b	#8,	r10	;r2 As==11
  56:	28 c3       	bic	#2,	r8	;r3 As==10
  58:	02 00       	.word	0x0002;	????	
  5a:	71 0e       	.word	0x0e71;	????	
  5c:	28 c3       	bic	#2,	r8	;r3 As==10
  5e:	2c c3       	bic	#2,	r12	;r3 As==10
  60:	02 00       	.word	0x0002;	????	
  62:	71 10       	rrc.b	@r1+		
  64:	2c c3       	bic	#2,	r12	;r3 As==10
  66:	32 c3       	bic	#-1,	r2	;r3 As==11
  68:	02 00       	.word	0x0002;	????	
  6a:	71 12       	push.b	@r1+		
  6c:	32 c3       	bic	#-1,	r2	;r3 As==11
  6e:	44 c3       	bic.b	#0,	r4	;r3 As==00
  70:	02 00       	.word	0x0002;	????	
  72:	71 0e       	.word	0x0e71;	????	
  74:	00 00       	.word	0x0000;	????	
  76:	00 00       	.word	0x0000;	????	
  78:	44 c3       	bic.b	#0,	r4	;r3 As==00
  7a:	46 c3       	bic.b	#0,	r6	;r3 As==00
  7c:	02 00       	.word	0x0002;	????	
  7e:	71 00       	.word	0x0071;	????	
  80:	46 c3       	bic.b	#0,	r6	;r3 As==00
  82:	48 c3       	bic.b	#0,	r8	;r3 As==00
  84:	02 00       	.word	0x0002;	????	
  86:	71 02       	.word	0x0271;	????	
  88:	48 c3       	bic.b	#0,	r8	;r3 As==00
  8a:	4a c3       	bic.b	#0,	r10	;r3 As==00
  8c:	02 00       	.word	0x0002;	????	
  8e:	71 04       	.word	0x0471;	????	
  90:	4a c3       	bic.b	#0,	r10	;r3 As==00
  92:	4c c3       	bic.b	#0,	r12	;r3 As==00
  94:	02 00       	.word	0x0002;	????	
  96:	71 06       	.word	0x0671;	????	
  98:	4c c3       	bic.b	#0,	r12	;r3 As==00
  9a:	dc c3 02 00 	bic.b	#1,	2(r12)	;r3 As==01, 0x0002(r12)
  9e:	71 08       	.word	0x0871;	????	
  a0:	00 00       	.word	0x0000;	????	
  a2:	00 00       	.word	0x0000;	????	
  a4:	00 00       	.word	0x0000;	????	
  a6:	02 00       	.word	0x0002;	????	
  a8:	02 00       	.word	0x0002;	????	
  aa:	71 02       	.word	0x0271;	????	
  ac:	02 00       	.word	0x0002;	????	
  ae:	9e 00       	.word	0x009e;	????	
  b0:	02 00       	.word	0x0002;	????	
  b2:	71 06       	.word	0x0671;	????	
  b4:	00 00       	.word	0x0000;	????	
  b6:	00 00       	.word	0x0000;	????	
  b8:	00 00       	.word	0x0000;	????	
  ba:	02 00       	.word	0x0002;	????	
  bc:	02 00       	.word	0x0002;	????	
  be:	71 02       	.word	0x0271;	????	
  c0:	02 00       	.word	0x0002;	????	
  c2:	04 00       	.word	0x0004;	????	
  c4:	02 00       	.word	0x0002;	????	
  c6:	71 04       	.word	0x0471;	????	
  c8:	04 00       	.word	0x0004;	????	
  ca:	06 00       	.word	0x0006;	????	
  cc:	02 00       	.word	0x0002;	????	
  ce:	71 06       	.word	0x0671;	????	
  d0:	06 00       	.word	0x0006;	????	
  d2:	08 00       	.word	0x0008;	????	
  d4:	02 00       	.word	0x0002;	????	
  d6:	71 08       	.word	0x0871;	????	
  d8:	08 00       	.word	0x0008;	????	
  da:	0a 00       	.word	0x000a;	????	
  dc:	02 00       	.word	0x0002;	????	
  de:	71 0a       	.word	0x0a71;	????	
  e0:	0a 00       	.word	0x000a;	????	
  e2:	6a 00       	.word	0x006a;	????	
  e4:	02 00       	.word	0x0002;	????	
  e6:	71 0c       	.word	0x0c71;	????	
  e8:	00 00       	.word	0x0000;	????	
  ea:	00 00       	.word	0x0000;	????	
  ec:	00 00       	.word	0x0000;	????	
  ee:	14 00       	.word	0x0014;	????	
  f0:	06 00       	.word	0x0006;	????	
  f2:	5e 93       	cmp.b	#1,	r14	;r3 As==01
  f4:	02 5f       	add	r15,	r2	
  f6:	93 02       	.word	0x0293;	????	
  f8:	14 00       	.word	0x0014;	????	
  fa:	66 00       	.word	0x0066;	????	
  fc:	06 00       	.word	0x0006;	????	
  fe:	5a 93       	cmp.b	#1,	r10	;r3 As==01
 100:	02 5b       	add	r11,	r2	
 102:	93 02       	.word	0x0293;	????	
 104:	00 00       	.word	0x0000;	????	
 106:	00 00       	.word	0x0000;	????	
 108:	00 00       	.word	0x0000;	????	
 10a:	14 00       	.word	0x0014;	????	
 10c:	01 00       	.word	0x0001;	????	
 10e:	5d 14       	.word	0x145d;	????	
 110:	00 60       	rlc	r0		
 112:	00 01       	.word	0x0100;	????	
 114:	00 57       	add	r7,	r0	
 116:	00 00       	.word	0x0000;	????	
 118:	00 00       	.word	0x0000;	????	
 11a:	2c 00       	.word	0x002c;	????	
 11c:	32 00       	.word	0x0032;	????	
 11e:	03 00       	.word	0x0003;	????	
 120:	08 30       	jn	$+18     	;abs 0x132
 122:	9f 32       	jn	$-704    	;abs 0xfe62
 124:	00 47       	br	r7		
 126:	00 01       	.word	0x0100;	????	
 128:	00 5f       	add	r15,	r0	
 12a:	00 00       	.word	0x0000;	????	
 12c:	00 00       	.word	0x0000;	????	
 12e:	2c 00       	.word	0x002c;	????	
 130:	47 00       	.word	0x0047;	????	
 132:	02 00       	.word	0x0002;	????	
 134:	77 7c       	subc.b	@r12+,	r7	
 136:	47 00       	.word	0x0047;	????	
 138:	4c 00       	.word	0x004c;	????	
 13a:	06 00       	.word	0x0006;	????	
 13c:	58 93       	cmp.b	#1,	r8	;r3 As==01
 13e:	02 59       	add	r9,	r2	
 140:	93 02       	.word	0x0293;	????	
 142:	00 00       	.word	0x0000;	????	
 144:	00 00       	.word	0x0000;	????	
 146:	6a 00       	.word	0x006a;	????	
 148:	6e 00       	.word	0x006e;	????	
 14a:	01 00       	.word	0x0001;	????	
 14c:	5f 00       	.word	0x005f;	????	
 14e:	00 00       	.word	0x0000;	????	
 150:	00 78       	subc	r8,	r0	
 152:	00 7a       	subc	r10,	r0	
 154:	00 02       	.word	0x0200;	????	
 156:	00 71       	subc	r1,	r0	
 158:	02 7a       	subc	r10,	r2	
 15a:	00 8c       	sub	r12,	r0	
 15c:	00 02       	.word	0x0200;	????	
 15e:	00 71       	subc	r1,	r0	
 160:	04 00       	.word	0x0004;	????	
 162:	00 00       	.word	0x0000;	????	
 164:	00 78       	subc	r8,	r0	
 166:	00 7e       	subc	r14,	r0	
 168:	00 01       	.word	0x0100;	????	
 16a:	00 5f       	add	r15,	r0	
 16c:	00 00       	.word	0x0000;	????	
 16e:	00 00       	.word	0x0000;	????	
 170:	7c 00       	.word	0x007c;	????	
 172:	7e 00       	.word	0x007e;	????	
 174:	02 00       	.word	0x0002;	????	
 176:	30 9f       	cmp	@r15+,	r0	
 178:	00 00       	.word	0x0000;	????	
 17a:	00 00       	.word	0x0000;	????	
 17c:	8c 00       	.word	0x008c;	????	
 17e:	8e 00       	.word	0x008e;	????	
 180:	02 00       	.word	0x0002;	????	
 182:	71 02       	.word	0x0271;	????	
 184:	8e 00       	.word	0x008e;	????	
 186:	90 00       	.word	0x0090;	????	
 188:	02 00       	.word	0x0002;	????	
 18a:	71 04       	.word	0x0471;	????	
 18c:	90 00       	.word	0x0090;	????	
 18e:	92 00       	.word	0x0092;	????	
 190:	02 00       	.word	0x0002;	????	
 192:	71 06       	.word	0x0671;	????	
 194:	92 00       	.word	0x0092;	????	
 196:	96 00       	.word	0x0096;	????	
 198:	02 00       	.word	0x0002;	????	
 19a:	71 08       	.word	0x0871;	????	
 19c:	96 00       	.word	0x0096;	????	
 19e:	06 01       	.word	0x0106;	????	
 1a0:	02 00       	.word	0x0002;	????	
 1a2:	71 28       	jnc	$+228    	;abs 0x286
 1a4:	00 00       	.word	0x0000;	????	
 1a6:	00 00       	.word	0x0000;	????	
 1a8:	8c 00       	.word	0x008c;	????	
 1aa:	9c 00       	.word	0x009c;	????	
 1ac:	01 00       	.word	0x0001;	????	
 1ae:	5f 9c 00 d0 	cmp.b	-12288(r12),r15	;0xd000(r12)
 1b2:	00 01       	.word	0x0100;	????	
 1b4:	00 5b       	add	r11,	r0	
 1b6:	d0 00       	.word	0x00d0;	????	
 1b8:	d8 00       	.word	0x00d8;	????	
 1ba:	01 00       	.word	0x0001;	????	
 1bc:	5f d8 00 e0 	bis.b	-8192(r8),r15	;0xe000(r8)
 1c0:	00 01       	.word	0x0100;	????	
 1c2:	00 5b       	add	r11,	r0	
 1c4:	e0 00       	.word	0x00e0;	????	
 1c6:	e2 00       	.word	0x00e2;	????	
 1c8:	01 00       	.word	0x0001;	????	
 1ca:	5f 00       	.word	0x005f;	????	
 1cc:	00 00       	.word	0x0000;	????	
 1ce:	00 d2       	bis	r2,	r0	
 1d0:	00 d8       	bis	r8,	r0	
 1d2:	00 01       	.word	0x0100;	????	
 1d4:	00 5a       	add	r10,	r0	
 1d6:	00 00       	.word	0x0000;	????	
 1d8:	00 00       	.word	0x0000;	????	
 1da:	dc 00       	.word	0x00dc;	????	
 1dc:	e2 00       	.word	0x00e2;	????	
 1de:	03 00       	.word	0x0003;	????	
 1e0:	7a 01       	.word	0x017a;	????	
 1e2:	9f 00       	.word	0x009f;	????	
 1e4:	00 00       	.word	0x0000;	????	
 1e6:	00 06       	.word	0x0600;	????	
 1e8:	01 08       	.word	0x0801;	????	
 1ea:	01 02       	.word	0x0201;	????	
 1ec:	00 71       	subc	r1,	r0	
 1ee:	02 08       	.word	0x0802;	????	
 1f0:	01 0a       	.word	0x0a01;	????	
 1f2:	01 02       	.word	0x0201;	????	
 1f4:	00 71       	subc	r1,	r0	
 1f6:	04 0a       	.word	0x0a04;	????	
 1f8:	01 40       	mov	r0,	r1	
 1fa:	01 02       	.word	0x0201;	????	
 1fc:	00 71       	subc	r1,	r0	
 1fe:	06 00       	.word	0x0006;	????	
 200:	00 00       	.word	0x0000;	????	
 202:	00 06       	.word	0x0600;	????	
 204:	01 10       	rrc	r1		
 206:	01 01       	.word	0x0101;	????	
 208:	00 5f       	add	r15,	r0	
 20a:	10 01       	.word	0x0110;	????	
 20c:	3c 01       	.word	0x013c;	????	
 20e:	01 00       	.word	0x0001;	????	
 210:	5a 00       	.word	0x005a;	????	
 212:	00 00       	.word	0x0000;	????	
 214:	00 06       	.word	0x0600;	????	
 216:	01 10       	rrc	r1		
 218:	01 01       	.word	0x0101;	????	
 21a:	00 5e       	add	r14,	r0	
 21c:	00 00       	.word	0x0000;	????	
 21e:	00 00       	.word	0x0000;	????	
 220:	10 01       	.word	0x0110;	????	
 222:	34 01       	.word	0x0134;	????	
 224:	01 00       	.word	0x0001;	????	
 226:	5b 36       	jge	$-840    	;abs 0xfede
 228:	01 3e       	jmp	$-1020   	;abs 0xfe2c
 22a:	01 01       	.word	0x0101;	????	
 22c:	00 5b       	add	r11,	r0	
 22e:	00 00       	.word	0x0000;	????	
 230:	00 00       	.word	0x0000;	????	
 232:	40 01       	.word	0x0140;	????	
 234:	42 01       	.word	0x0142;	????	
 236:	02 00       	.word	0x0002;	????	
 238:	71 02       	.word	0x0271;	????	
 23a:	42 01       	.word	0x0142;	????	
 23c:	44 01       	.word	0x0144;	????	
 23e:	02 00       	.word	0x0002;	????	
 240:	71 04       	.word	0x0471;	????	
 242:	44 01       	.word	0x0144;	????	
 244:	46 01       	.word	0x0146;	????	
 246:	02 00       	.word	0x0002;	????	
 248:	71 06       	.word	0x0671;	????	
 24a:	46 01       	.word	0x0146;	????	
 24c:	48 01       	.word	0x0148;	????	
 24e:	02 00       	.word	0x0002;	????	
 250:	71 08       	.word	0x0871;	????	
 252:	48 01       	.word	0x0148;	????	
 254:	6a 02       	.word	0x026a;	????	
 256:	02 00       	.word	0x0002;	????	
 258:	71 0a       	.word	0x0a71;	????	
 25a:	00 00       	.word	0x0000;	????	
 25c:	00 00       	.word	0x0000;	????	
 25e:	40 01       	.word	0x0140;	????	
 260:	52 01       	.word	0x0152;	????	
 262:	02 00       	.word	0x0002;	????	
 264:	91 00       	.word	0x0091;	????	
 266:	52 01       	.word	0x0152;	????	
 268:	5e 01       	.word	0x015e;	????	
 26a:	03 00       	.word	0x0003;	????	
 26c:	7a 01       	.word	0x017a;	????	
 26e:	9f 5e 01 54 	add	21505(r14),258(r15);0x5401(r14), 0x0102(r15)
 272:	02 01 
 274:	00 5a       	add	r10,	r0	
 276:	54 02       	.word	0x0254;	????	
 278:	56 02       	.word	0x0256;	????	
 27a:	03 00       	.word	0x0003;	????	
 27c:	7a 01       	.word	0x017a;	????	
 27e:	9f 56 02 5c 	add	23554(r6),258(r15);0x5c02(r6), 0x0102(r15)
 282:	02 01 
 284:	00 5a       	add	r10,	r0	
 286:	5c 02       	.word	0x025c;	????	
 288:	60 02       	.word	0x0260;	????	
 28a:	03 00       	.word	0x0003;	????	
 28c:	7a 01       	.word	0x017a;	????	
 28e:	9f 00       	.word	0x009f;	????	
 290:	00 00       	.word	0x0000;	????	
 292:	00 52       	add	r2,	r0	
 294:	01 5c       	add	r12,	r1	
 296:	01 01       	.word	0x0101;	????	
 298:	00 5f       	add	r15,	r0	
 29a:	5c 01       	.word	0x015c;	????	
 29c:	5e 01       	.word	0x015e;	????	
 29e:	02 00       	.word	0x0002;	????	
 2a0:	7a 01       	.word	0x017a;	????	
 2a2:	5e 01       	.word	0x015e;	????	
 2a4:	a5 01       	.word	0x01a5;	????	
 2a6:	02 00       	.word	0x0002;	????	
 2a8:	7a 7f       	subc.b	@r15+,	r10	
 2aa:	a8 01       	.word	0x01a8;	????	
 2ac:	ae 01       	.word	0x01ae;	????	
 2ae:	01 00       	.word	0x0001;	????	
 2b0:	5f ae 01 b1 	dadd.b	-20223(r14),r15	;0xb101(r14)
 2b4:	01 02       	.word	0x0201;	????	
 2b6:	00 7a       	subc	r10,	r0	
 2b8:	7f b6       	bit.b	@r6+,	r15	
 2ba:	01 ce       	bic	r14,	r1	
 2bc:	01 01       	.word	0x0101;	????	
 2be:	00 5f       	add	r15,	r0	
 2c0:	ce 01       	.word	0x01ce;	????	
 2c2:	d1 01       	.word	0x01d1;	????	
 2c4:	02 00       	.word	0x0002;	????	
 2c6:	7a 7f       	subc.b	@r15+,	r10	
 2c8:	e0 01       	.word	0x01e0;	????	
 2ca:	08 02       	.word	0x0208;	????	
 2cc:	01 00       	.word	0x0001;	????	
 2ce:	5f 08       	.word	0x085f;	????	
 2d0:	02 0b       	.word	0x0b02;	????	
 2d2:	02 02       	.word	0x0202;	????	
 2d4:	00 7a       	subc	r10,	r0	
 2d6:	7f 1c       	.word	0x1c7f;	????	
 2d8:	02 24       	jz	$+6      	;abs 0x2de
 2da:	02 01       	.word	0x0102;	????	
 2dc:	00 5f       	add	r15,	r0	
 2de:	24 02       	.word	0x0224;	????	
 2e0:	33 02       	.word	0x0233;	????	
 2e2:	02 00       	.word	0x0002;	????	
 2e4:	7a 7f       	subc.b	@r15+,	r10	
 2e6:	54 02       	.word	0x0254;	????	
 2e8:	59 02       	.word	0x0259;	????	
 2ea:	01 00       	.word	0x0001;	????	
 2ec:	5f 5c 02 60 	add.b	24578(r12),r15	;0x6002(r12)
 2f0:	02 02       	.word	0x0202;	????	
 2f2:	00 7a       	subc	r10,	r0	
 2f4:	00 60       	rlc	r0		
 2f6:	02 6a       	addc	r10,	r2	
 2f8:	02 01       	.word	0x0102;	????	
 2fa:	00 5f       	add	r15,	r0	
 2fc:	00 00       	.word	0x0000;	????	
 2fe:	00 00       	.word	0x0000;	????	
 300:	bc 01       	.word	0x01bc;	????	
 302:	ca 01       	.word	0x01ca;	????	
 304:	02 00       	.word	0x0002;	????	
 306:	79 7e       	subc.b	@r14+,	r9	
 308:	ca 01       	.word	0x01ca;	????	
 30a:	e0 01       	.word	0x01e0;	????	
 30c:	01 00       	.word	0x0001;	????	
 30e:	5b 22       	jnz	$-840    	;abs 0xffc6
 310:	02 33       	jn	$-506    	;abs 0x116
 312:	02 02       	.word	0x0202;	????	
 314:	00 79       	subc	r9,	r0	
 316:	7e 33       	jn	$-258    	;abs 0x214
 318:	02 54       	add	r4,	r2	
 31a:	02 01       	.word	0x0102;	????	
 31c:	00 5b       	add	r11,	r0	
 31e:	00 00       	.word	0x0000;	????	
 320:	00 00       	.word	0x0000;	????	
 322:	ea 01       	.word	0x01ea;	????	
 324:	04 02       	.word	0x0204;	????	
 326:	08 00       	.word	0x0008;	????	
 328:	78 7c       	subc.b	@r12+,	r8	
 32a:	93 02       	.word	0x0293;	????	
 32c:	78 7e       	subc.b	@r14+,	r8	
 32e:	93 02       	.word	0x0293;	????	
 330:	04 02       	.word	0x0204;	????	
 332:	0b 02       	.word	0x020b;	????	
 334:	07 00       	.word	0x0007;	????	
 336:	5c 93       	cmp.b	#1,	r12	;r3 As==01
 338:	02 78       	subc	r8,	r2	
 33a:	7e 93       	cmp.b	#-1,	r14	;r3 As==11
 33c:	02 0b       	.word	0x0b02;	????	
 33e:	02 1a       	.word	0x1a02;	????	
 340:	02 06       	.word	0x0602;	????	
 342:	00 59       	add	r9,	r0	
 344:	93 02       	.word	0x0293;	????	
 346:	5b 93       	cmp.b	#1,	r11	;r3 As==01
 348:	02 00       	.word	0x0002;	????	
 34a:	00 00       	.word	0x0000;	????	
 34c:	00 50       	rla	r0		
 34e:	01 a0       	dadd	r0,	r1	
 350:	01 01       	.word	0x0101;	????	
 352:	00 5b       	add	r11,	r0	
 354:	a0 01       	.word	0x01a0;	????	
 356:	a8 01       	.word	0x01a8;	????	
 358:	01 00       	.word	0x0001;	????	
 35a:	59 a8 01 ac 	dadd.b	-21503(r8),r9	;0xac01(r8)
 35e:	01 01       	.word	0x0101;	????	
 360:	00 5b       	add	r11,	r0	
 362:	ac 01       	.word	0x01ac;	????	
 364:	b6 01       	.word	0x01b6;	????	
 366:	01 00       	.word	0x0001;	????	
 368:	59 b6 01 ba 	bit.b	-17919(r6),r9	;0xba01(r6)
 36c:	01 01       	.word	0x0101;	????	
 36e:	00 5b       	add	r11,	r0	
 370:	ba 01       	.word	0x01ba;	????	
 372:	e0 01       	.word	0x01e0;	????	
 374:	01 00       	.word	0x0001;	????	
 376:	59 e0 01 e4 	xor.b	-7167(r0),r9	;PC rel. 0xe779
 37a:	01 01       	.word	0x0101;	????	
 37c:	00 5b       	add	r11,	r0	
 37e:	e4 01       	.word	0x01e4;	????	
 380:	1c 02       	.word	0x021c;	????	
 382:	01 00       	.word	0x0001;	????	
 384:	58 1c       	.word	0x1c58;	????	
 386:	02 20       	jnz	$+6      	;abs 0x38c
 388:	02 01       	.word	0x0102;	????	
 38a:	00 5b       	add	r11,	r0	
 38c:	20 02       	.word	0x0220;	????	
 38e:	54 02       	.word	0x0254;	????	
 390:	01 00       	.word	0x0001;	????	
 392:	59 54 02 68 	add.b	26626(r4),r9	;0x6802(r4)
 396:	02 01       	.word	0x0102;	????	
 398:	00 5b       	add	r11,	r0	
 39a:	00 00       	.word	0x0000;	????	
 39c:	00 00       	.word	0x0000;	????	
 39e:	00 00       	.word	0x0000;	????	
 3a0:	03 00       	.word	0x0003;	????	
 3a2:	01 00       	.word	0x0001;	????	
 3a4:	5f 00       	.word	0x005f;	????	
 3a6:	00 00       	.word	0x0000;	????	
 3a8:	00 2a       	jnc	$-1022   	;abs 0xffaa
 3aa:	01 37       	jge	$-508    	;abs 0x1ae
 3ac:	01 01       	.word	0x0101;	????	
 3ae:	00 5f       	add	r15,	r0	
 3b0:	00 00       	.word	0x0000;	????	
	...

Disassembly of section .debug_ranges:

00000000 <.debug_ranges>:
   0:	3e c1       	bic	@r1+,	r14	
   2:	dc c3 3e c0 	bic.b	#1,	-16322(r12);r3 As==01, 0xc03e(r12)
   6:	34 c1       	bic	@r1+,	r4	
   8:	00 00       	.word	0x0000;	????	
	...
